(dp1
S'upper'
p2
(dp3
sS'data_source'
p4
S'URL:  postgresql+psycopg2://postgres:postgres@10.0.0.3:5432/realization'
p5
sS'sheet'
p6
(lp7
(lp8
(dp9
S'merge_row'
p10
I1
sS'format'
p11
NsS'color'
p12
(dp13
S'text'
p14
(I0
I0
I0
tp15
sS'background'
p16
NssS'align'
p17
(dp18
S'wrap_txt'
p19
I00
sS'align_txt'
p20
(I0
I4
tp21
ssS'value'
p22
NsS'height'
p23
F19.123999999999999
sS'visible'
p24
I01
sS'width'
p25
F63.223999999999997
sS'merge_col'
p26
I1
sS'font'
p27
(dp28
S'style'
p29
S'regular'
p30
sS'name'
p31
S'Arial Cyr'
p32
sS'family'
p33
S'default'
p34
sS'faceName'
p35
NsS'underline'
p36
I00
sS'size'
p37
I10
ssS'border'
p38
(NNNNtp39
sS'sum'
p40
Nsa(dp41
g10
I1
sg11
Nsg12
(dp42
g14
g15
sg16
Nssg17
(dp43
g19
I00
sg20
(I0
I4
tp44
ssg22
Nsg23
F19.123999999999999
sg24
I01
sg25
F238.392
sg26
I1
sg27
(dp45
g29
g30
sg31
g32
sg33
g34
sg35
Nsg36
I00
sg37
I10
ssg38
(NNNNtp46
sg40
Nsa(dp47
g10
I1
sg11
Nsg12
(dp48
g14
g15
sg16
Nssg17
(dp49
g19
I00
sg20
(I1
I4
tp50
ssg22
S'\xd0\xa1\xd0\xb2\xd0\xbe\xd0\xb4\xd0\xbd\xd1\x8b\xd0\xb9 \xd0\xbe\xd1\x82\xd1\x87\xd0\xb5\xd1\x82 \xd0\xbe \xd0\xb4\xd0\xb2\xd0\xb8\xd0\xb6\xd0\xb5\xd0\xbd\xd0\xb8\xd0\xb8 \xd0\xbf\xd1\x80\xd0\xbe\xd0\xb4\xd1\x83\xd0\xba\xd1\x86\xd0\xb8\xd0\xb8 \xd0\xbd\xd0\xb0 \xd1\x81\xd0\xba\xd0\xbb\xd0\xb0\xd0\xb4\xd0\xb0\xd1\x85 \xd0\xb4\xd0\xb8\xd0\xbb\xd0\xb5\xd1\x80\xd0\xbe\xd0\xb2'
p51
sg23
F19.123999999999999
sg24
I01
sg25
F63.223999999999997
sg26
I8
sg27
(dp52
g29
S'bold'
p53
sg31
VArial
p54
sg33
g34
sg35
g54
sg36
I00
sg37
F14
ssg38
(NNNNtp55
sg40
Nsa(dp56
g10
I1
sg11
Nsg12
(dp57
g14
g15
sg16
(I153
I204
I255
tp58
ssg17
(dp59
g19
I00
sg20
(I0
I5
tp60
ssg22
Nsg23
F19.123999999999999
sg24
I01
sg25
F63.223999999999997
sg26
I1
sg27
(dp61
g29
g30
sg31
VCourier New
p62
sg33
g34
sg35
g62
sg36
I00
sg37
F10
ssg38
(NNNNtp63
sg40
Nsa(dp64
g10
I1
sg11
Nsg12
(dp65
g14
g15
sg16
(I153
I204
I255
tp66
ssg17
(dp67
g19
I00
sg20
(I0
I4
tp68
ssg22
Nsg23
F19.123999999999999
sg24
I01
sg25
F63.223999999999997
sg26
I1
sg27
(dp69
g29
g30
sg31
g32
sg33
g34
sg35
Nsg36
I00
sg37
I10
ssg38
(NNNNtp70
sg40
Nsa(dp71
g10
I1
sg11
Nsg12
(dp72
g14
g15
sg16
(I153
I204
I255
tp73
ssg17
(dp74
g19
I00
sg20
(I0
I5
tp75
ssg22
Nsg23
F19.123999999999999
sg24
I01
sg25
F96.067999999999998
sg26
I1
sg27
(dp76
g29
g30
sg31
g62
sg33
g34
sg35
g62
sg36
I00
sg37
F10
ssg38
(NNNNtp77
sg40
Nsa(dp78
g10
I1
sg11
Nsg12
(dp79
g14
g15
sg16
(I102
I102
I153
tp80
ssg17
(dp81
g19
I00
sg20
(I0
I5
tp82
ssg22
Nsg23
F19.123999999999999
sg24
I01
sg25
F146.88800000000001
sg26
I1
sg27
(dp83
g29
g30
sg31
VCourier New
p84
sg33
g34
sg35
g84
sg36
I00
sg37
F10
ssg38
(NNNNtp85
sg40
Nsa(dp86
g10
I1
sg11
Nsg12
(dp87
g14
g15
sg16
Nssg17
(dp88
g19
I00
sg20
(I0
I4
tp89
ssg22
Nsg23
F19.123999999999999
sg24
I01
sg25
F63.223999999999997
sg26
I1
sg27
(dp90
g29
g30
sg31
g32
sg33
g34
sg35
Nsg36
I00
sg37
I10
ssg38
(NNNNtp91
sg40
Nsa(dp92
g10
I1
sg11
Nsg12
(dp93
g14
g15
sg16
Nssg17
(dp94
g19
I00
sg20
(I0
I4
tp95
ssg22
Nsg23
F19.123999999999999
sg24
I01
sg25
F63.223999999999997
sg26
I1
sg27
(dp96
g29
g30
sg31
g32
sg33
g34
sg35
Nsg36
I00
sg37
I10
ssg38
(NNNNtp97
sg40
Nsa(dp98
g10
I1
sg11
Nsg12
(dp99
g14
g15
sg16
Nssg17
(dp100
g19
I00
sg20
(I0
I4
tp101
ssg22
Nsg23
F19.123999999999999
sg24
I01
sg25
F63.223999999999997
sg26
I1
sg27
(dp102
g29
g30
sg31
g32
sg33
g34
sg35
Nsg36
I00
sg37
I10
ssg38
(NNNNtp103
sg40
Nsa(dp104
g10
I1
sg11
Nsg12
(dp105
g14
g15
sg16
Nssg17
(dp106
g19
I00
sg20
(I0
I4
tp107
ssg22
Nsg23
F19.123999999999999
sg24
I01
sg25
F63.223999999999997
sg26
I1
sg27
(dp108
g29
g30
sg31
g32
sg33
g34
sg35
Nsg36
I00
sg37
I10
ssg38
(NNNNtp109
sg40
Nsa(dp110
g10
I1
sg11
Nsg12
(dp111
g14
g15
sg16
Nssg17
(dp112
g19
I00
sg20
(I0
I4
tp113
ssg22
Nsg23
F19.123999999999999
sg24
I01
sg25
F63.223999999999997
sg26
I1
sg27
(dp114
g29
g30
sg31
g32
sg33
g34
sg35
Nsg36
I00
sg37
I10
ssg38
(NNNNtp115
sg40
Nsa(dp116
g10
I1
sg11
Nsg12
(dp117
g14
g15
sg16
Nssg17
(dp118
g19
I00
sg20
(I0
I4
tp119
ssg22
Nsg23
F19.123999999999999
sg24
I01
sg25
F63.223999999999997
sg26
I1
sg27
(dp120
g29
g30
sg31
g32
sg33
g34
sg35
Nsg36
I00
sg37
I10
ssg38
(NNNNtp121
sg40
Nsa(dp122
g10
I1
sg11
Nsg12
(dp123
g14
g15
sg16
Nssg17
(dp124
g19
I00
sg20
(I0
I4
tp125
ssg22
Nsg23
F19.123999999999999
sg24
I01
sg25
F63.223999999999997
sg26
I1
sg27
(dp126
g29
g30
sg31
g32
sg33
g34
sg35
Nsg36
I00
sg37
I10
ssg38
(NNNNtp127
sg40
Nsa(dp128
g10
I1
sg11
Nsg12
(dp129
g14
g15
sg16
Nssg17
(dp130
g19
I00
sg20
(I0
I4
tp131
ssg22
Nsg23
F19.123999999999999
sg24
I01
sg25
F63.223999999999997
sg26
I1
sg27
(dp132
g29
g30
sg31
g32
sg33
g34
sg35
Nsg36
I00
sg37
I10
ssg38
(NNNNtp133
sg40
Nsa(dp134
g10
I1
sg11
Nsg12
(dp135
g14
g15
sg16
Nssg17
(dp136
g19
I00
sg20
(I0
I4
tp137
ssg22
Nsg23
F19.123999999999999
sg24
I01
sg25
F63.223999999999997
sg26
I1
sg27
(dp138
g29
g30
sg31
g32
sg33
g34
sg35
Nsg36
I00
sg37
I10
ssg38
(NNNNtp139
sg40
Nsa(dp140
g10
I1
sg11
Nsg12
(dp141
g14
g15
sg16
Nssg17
(dp142
g19
I00
sg20
(I0
I4
tp143
ssg22
Nsg23
F19.123999999999999
sg24
I01
sg25
F63.223999999999997
sg26
I1
sg27
(dp144
g29
g30
sg31
g32
sg33
g34
sg35
Nsg36
I00
sg37
I10
ssg38
(NNNNtp145
sg40
Nsa(dp146
g10
I1
sg11
Nsg12
(dp147
g14
g15
sg16
Nssg17
(dp148
g19
I00
sg20
(I0
I4
tp149
ssg22
Nsg23
F19.123999999999999
sg24
I01
sg25
F63.223999999999997
sg26
I1
sg27
(dp150
g29
g30
sg31
g32
sg33
g34
sg35
Nsg36
I00
sg37
I10
ssg38
(NNNNtp151
sg40
Nsa(dp152
g10
I1
sg11
Nsg12
(dp153
g14
g15
sg16
Nssg17
(dp154
g19
I00
sg20
(I0
I4
tp155
ssg22
Nsg23
F19.123999999999999
sg24
I01
sg25
F63.223999999999997
sg26
I1
sg27
(dp156
g29
g30
sg31
g32
sg33
g34
sg35
Nsg36
I00
sg37
I10
ssg38
(NNNNtp157
sg40
Nsa(dp158
g10
I1
sg11
Nsg12
(dp159
g14
g15
sg16
Nssg17
(dp160
g19
I00
sg20
(I0
I4
tp161
ssg22
Nsg23
F19.123999999999999
sg24
I01
sg25
F63.223999999999997
sg26
I1
sg27
(dp162
g29
g30
sg31
g32
sg33
g34
sg35
Nsg36
I00
sg37
I10
ssg38
(NNNNtp163
sg40
Nsaa(lp164
(dp165
g10
I1
sg11
Nsg12
(dp166
g14
g15
sg16
Nssg17
(dp167
g19
I00
sg20
(I0
I4
tp168
ssg22
Nsg23
F19.123999999999999
sg24
I01
sg25
F63.223999999999997
sg26
I1
sg27
(dp169
g29
g30
sg31
g32
sg33
g34
sg35
Nsg36
I00
sg37
I10
ssg38
(NNNNtp170
sg40
Nsa(dp171
g10
I1
sg11
Nsg12
(dp172
g14
g15
sg16
Nssg17
(dp173
g19
I00
sg20
(I0
I4
tp174
ssg22
Nsg23
F19.123999999999999
sg24
I01
sg25
F238.392
sg26
I1
sg27
(dp175
g29
g30
sg31
g32
sg33
g34
sg35
Nsg36
I00
sg37
I10
ssg38
(NNNNtp176
sg40
Nsa(dp177
g10
I1
sg11
Nsg12
(dp178
g14
g15
sg16
Nssg17
(dp179
g19
I00
sg20
(I1
I4
tp180
ssg22
S'\xd0\xb7\xd0\xb0 \xd0\xbf\xd0\xb5\xd1\x80\xd0\xb8\xd0\xbe\xd0\xb4 \xd1\x81 01.06.2015 \xd0\xbf\xd0\xbe 09.06.2015'
p181
sg23
F19.123999999999999
sg24
I01
sg25
F63.223999999999997
sg26
I8
sg27
(dp182
g29
g53
sg31
g54
sg33
g34
sg35
g54
sg36
I00
sg37
F14
ssg38
(NNNNtp183
sg40
Nsa(dp184
g10
I1
sg11
Nsg12
(dp185
g14
g15
sg16
(I153
I204
I255
tp186
ssg17
(dp187
g19
I00
sg20
(I0
I5
tp188
ssg22
Nsg23
F19.123999999999999
sg24
I01
sg25
F63.223999999999997
sg26
I1
sg27
(dp189
g29
g30
sg31
g62
sg33
g34
sg35
g62
sg36
I00
sg37
F10
ssg38
(NNNNtp190
sg40
Nsa(dp191
g10
I1
sg11
Nsg12
(dp192
g14
g15
sg16
(I153
I204
I255
tp193
ssg17
(dp194
g19
I00
sg20
(I0
I4
tp195
ssg22
Nsg23
F19.123999999999999
sg24
I01
sg25
F63.223999999999997
sg26
I1
sg27
(dp196
g29
g30
sg31
g32
sg33
g34
sg35
Nsg36
I00
sg37
I10
ssg38
(NNNNtp197
sg40
Nsa(dp198
g10
I1
sg11
Nsg12
(dp199
g14
g15
sg16
(I153
I204
I255
tp200
ssg17
(dp201
g19
I00
sg20
(I0
I5
tp202
ssg22
Nsg23
F19.123999999999999
sg24
I01
sg25
F96.067999999999998
sg26
I1
sg27
(dp203
g29
g30
sg31
g62
sg33
g34
sg35
g62
sg36
I00
sg37
F10
ssg38
(NNNNtp204
sg40
Nsa(dp205
g10
I1
sg11
Nsg12
(dp206
g14
g15
sg16
(I102
I102
I153
tp207
ssg17
(dp208
g19
I00
sg20
(I0
I5
tp209
ssg22
Nsg23
F19.123999999999999
sg24
I01
sg25
F146.88800000000001
sg26
I1
sg27
(dp210
g29
g30
sg31
g84
sg33
g34
sg35
g84
sg36
I00
sg37
F10
ssg38
(NNNNtp211
sg40
Nsa(dp212
g10
I1
sg11
Nsg12
(dp213
g14
g15
sg16
Nssg17
(dp214
g19
I00
sg20
(I0
I4
tp215
ssg22
Nsg23
F19.123999999999999
sg24
I01
sg25
F63.223999999999997
sg26
I1
sg27
(dp216
g29
g30
sg31
g32
sg33
g34
sg35
Nsg36
I00
sg37
I10
ssg38
(NNNNtp217
sg40
Nsa(dp218
g10
I1
sg11
Nsg12
(dp219
g14
g15
sg16
Nssg17
(dp220
g19
I00
sg20
(I0
I4
tp221
ssg22
Nsg23
F19.123999999999999
sg24
I01
sg25
F63.223999999999997
sg26
I1
sg27
(dp222
g29
g30
sg31
g32
sg33
g34
sg35
Nsg36
I00
sg37
I10
ssg38
(NNNNtp223
sg40
Nsa(dp224
g10
I1
sg11
Nsg12
(dp225
g14
g15
sg16
Nssg17
(dp226
g19
I00
sg20
(I0
I4
tp227
ssg22
Nsg23
F19.123999999999999
sg24
I01
sg25
F63.223999999999997
sg26
I1
sg27
(dp228
g29
g30
sg31
g32
sg33
g34
sg35
Nsg36
I00
sg37
I10
ssg38
(NNNNtp229
sg40
Nsa(dp230
g10
I1
sg11
Nsg12
(dp231
g14
g15
sg16
Nssg17
(dp232
g19
I00
sg20
(I0
I4
tp233
ssg22
Nsg23
F19.123999999999999
sg24
I01
sg25
F63.223999999999997
sg26
I1
sg27
(dp234
g29
g30
sg31
g32
sg33
g34
sg35
Nsg36
I00
sg37
I10
ssg38
(NNNNtp235
sg40
Nsa(dp236
g10
I1
sg11
Nsg12
(dp237
g14
g15
sg16
Nssg17
(dp238
g19
I00
sg20
(I0
I4
tp239
ssg22
Nsg23
F19.123999999999999
sg24
I01
sg25
F63.223999999999997
sg26
I1
sg27
(dp240
g29
g30
sg31
g32
sg33
g34
sg35
Nsg36
I00
sg37
I10
ssg38
(NNNNtp241
sg40
Nsa(dp242
g10
I1
sg11
Nsg12
(dp243
g14
g15
sg16
Nssg17
(dp244
g19
I00
sg20
(I0
I4
tp245
ssg22
Nsg23
F19.123999999999999
sg24
I01
sg25
F63.223999999999997
sg26
I1
sg27
(dp246
g29
g30
sg31
g32
sg33
g34
sg35
Nsg36
I00
sg37
I10
ssg38
(NNNNtp247
sg40
Nsa(dp248
g10
I1
sg11
Nsg12
(dp249
g14
g15
sg16
Nssg17
(dp250
g19
I00
sg20
(I0
I4
tp251
ssg22
Nsg23
F19.123999999999999
sg24
I01
sg25
F63.223999999999997
sg26
I1
sg27
(dp252
g29
g30
sg31
g32
sg33
g34
sg35
Nsg36
I00
sg37
I10
ssg38
(NNNNtp253
sg40
Nsa(dp254
g10
I1
sg11
Nsg12
(dp255
g14
g15
sg16
Nssg17
(dp256
g19
I00
sg20
(I0
I4
tp257
ssg22
Nsg23
F19.123999999999999
sg24
I01
sg25
F63.223999999999997
sg26
I1
sg27
(dp258
g29
g30
sg31
g32
sg33
g34
sg35
Nsg36
I00
sg37
I10
ssg38
(NNNNtp259
sg40
Nsa(dp260
g10
I1
sg11
Nsg12
(dp261
g14
g15
sg16
Nssg17
(dp262
g19
I00
sg20
(I0
I4
tp263
ssg22
Nsg23
F19.123999999999999
sg24
I01
sg25
F63.223999999999997
sg26
I1
sg27
(dp264
g29
g30
sg31
g32
sg33
g34
sg35
Nsg36
I00
sg37
I10
ssg38
(NNNNtp265
sg40
Nsa(dp266
g10
I1
sg11
Nsg12
(dp267
g14
g15
sg16
Nssg17
(dp268
g19
I00
sg20
(I0
I4
tp269
ssg22
Nsg23
F19.123999999999999
sg24
I01
sg25
F63.223999999999997
sg26
I1
sg27
(dp270
g29
g30
sg31
g32
sg33
g34
sg35
Nsg36
I00
sg37
I10
ssg38
(NNNNtp271
sg40
Nsa(dp272
g10
I1
sg11
Nsg12
(dp273
g14
g15
sg16
Nssg17
(dp274
g19
I00
sg20
(I0
I4
tp275
ssg22
Nsg23
F19.123999999999999
sg24
I01
sg25
F63.223999999999997
sg26
I1
sg27
(dp276
g29
g30
sg31
g32
sg33
g34
sg35
Nsg36
I00
sg37
I10
ssg38
(NNNNtp277
sg40
Nsa(dp278
g10
I1
sg11
Nsg12
(dp279
g14
g15
sg16
Nssg17
(dp280
g19
I00
sg20
(I0
I4
tp281
ssg22
Nsg23
F19.123999999999999
sg24
I01
sg25
F63.223999999999997
sg26
I1
sg27
(dp282
g29
g30
sg31
g32
sg33
g34
sg35
Nsg36
I00
sg37
I10
ssg38
(NNNNtp283
sg40
Nsa(dp284
g10
I1
sg11
Nsg12
(dp285
g14
g15
sg16
Nssg17
(dp286
g19
I00
sg20
(I0
I4
tp287
ssg22
Nsg23
F19.123999999999999
sg24
I01
sg25
F63.223999999999997
sg26
I1
sg27
(dp288
g29
g30
sg31
g32
sg33
g34
sg35
Nsg36
I00
sg37
I10
ssg38
(NNNNtp289
sg40
Nsaa(lp290
(dp291
g10
I1
sg11
Nsg12
(dp292
g14
g15
sg16
Nssg17
(dp293
g19
I00
sg20
(I0
I4
tp294
ssg22
Nsg23
F14.42
sg24
I01
sg25
F63.223999999999997
sg26
I1
sg27
(dp295
g29
g30
sg31
g32
sg33
g34
sg35
Nsg36
I00
sg37
I10
ssg38
(NNNNtp296
sg40
Nsa(dp297
g10
I1
sg11
Nsg12
(dp298
g14
g15
sg16
Nssg17
(dp299
g19
I00
sg20
(I0
I4
tp300
ssg22
Nsg23
F14.42
sg24
I01
sg25
F238.392
sg26
I1
sg27
(dp301
g29
g30
sg31
g32
sg33
g34
sg35
Nsg36
I00
sg37
I10
ssg38
(NNNNtp302
sg40
Nsa(dp303
g10
I1
sg11
Nsg12
(dp304
g14
g15
sg16
Nssg17
(dp305
g19
I00
sg20
(I0
I4
tp306
ssg22
Nsg23
F14.42
sg24
I01
sg25
F63.223999999999997
sg26
I1
sg27
(dp307
g29
g30
sg31
g32
sg33
g34
sg35
Nsg36
I00
sg37
I10
ssg38
(NNNNtp308
sg40
Nsa(dp309
g10
I1
sg11
Nsg12
(dp310
g14
g15
sg16
Nssg17
(dp311
g19
I00
sg20
(I0
I4
tp312
ssg22
Nsg23
F14.42
sg24
I01
sg25
F63.223999999999997
sg26
I1
sg27
(dp313
g29
g30
sg31
g32
sg33
g34
sg35
Nsg36
I00
sg37
I10
ssg38
(NNNNtp314
sg40
Nsa(dp315
g10
I1
sg11
Nsg12
(dp316
g14
g15
sg16
Nssg17
(dp317
g19
I00
sg20
(I0
I4
tp318
ssg22
Nsg23
F14.42
sg24
I01
sg25
F63.223999999999997
sg26
I1
sg27
(dp319
g29
g30
sg31
g32
sg33
g34
sg35
Nsg36
I00
sg37
I10
ssg38
(NNNNtp320
sg40
Nsa(dp321
g10
I1
sg11
Nsg12
(dp322
g14
g15
sg16
Nssg17
(dp323
g19
I00
sg20
(I0
I4
tp324
ssg22
Nsg23
F14.42
sg24
I01
sg25
F96.067999999999998
sg26
I1
sg27
(dp325
g29
g30
sg31
g32
sg33
g34
sg35
Nsg36
I00
sg37
I10
ssg38
(NNNNtp326
sg40
Nsa(dp327
g10
I1
sg11
Nsg12
(dp328
g14
g15
sg16
Nssg17
(dp329
g19
I00
sg20
(I0
I4
tp330
ssg22
Nsg23
F14.42
sg24
I01
sg25
F146.88800000000001
sg26
I1
sg27
(dp331
g29
g30
sg31
g32
sg33
g34
sg35
Nsg36
I00
sg37
I10
ssg38
(NNNNtp332
sg40
Nsa(dp333
g10
I1
sg11
Nsg12
(dp334
g14
g15
sg16
Nssg17
(dp335
g19
I00
sg20
(I0
I4
tp336
ssg22
Nsg23
F14.42
sg24
I01
sg25
F63.223999999999997
sg26
I1
sg27
(dp337
g29
g30
sg31
g32
sg33
g34
sg35
Nsg36
I00
sg37
I10
ssg38
(NNNNtp338
sg40
Nsa(dp339
g10
I1
sg11
Nsg12
(dp340
g14
g15
sg16
Nssg17
(dp341
g19
I00
sg20
(I0
I4
tp342
ssg22
Nsg23
F14.42
sg24
I01
sg25
F63.223999999999997
sg26
I1
sg27
(dp343
g29
g30
sg31
g32
sg33
g34
sg35
Nsg36
I00
sg37
I10
ssg38
(NNNNtp344
sg40
Nsa(dp345
g10
I1
sg11
Nsg12
(dp346
g14
g15
sg16
Nssg17
(dp347
g19
I00
sg20
(I0
I4
tp348
ssg22
Nsg23
F14.42
sg24
I01
sg25
F63.223999999999997
sg26
I1
sg27
(dp349
g29
g30
sg31
g32
sg33
g34
sg35
Nsg36
I00
sg37
I10
ssg38
(NNNNtp350
sg40
Nsa(dp351
g10
I1
sg11
Nsg12
(dp352
g14
g15
sg16
Nssg17
(dp353
g19
I00
sg20
(I0
I4
tp354
ssg22
Nsg23
F14.42
sg24
I01
sg25
F63.223999999999997
sg26
I1
sg27
(dp355
g29
g30
sg31
g32
sg33
g34
sg35
Nsg36
I00
sg37
I10
ssg38
(NNNNtp356
sg40
Nsa(dp357
g10
I1
sg11
Nsg12
(dp358
g14
g15
sg16
Nssg17
(dp359
g19
I00
sg20
(I0
I4
tp360
ssg22
Nsg23
F14.42
sg24
I01
sg25
F63.223999999999997
sg26
I1
sg27
(dp361
g29
g30
sg31
g32
sg33
g34
sg35
Nsg36
I00
sg37
I10
ssg38
(NNNNtp362
sg40
Nsa(dp363
g10
I1
sg11
Nsg12
(dp364
g14
g15
sg16
Nssg17
(dp365
g19
I00
sg20
(I0
I4
tp366
ssg22
Nsg23
F14.42
sg24
I01
sg25
F63.223999999999997
sg26
I1
sg27
(dp367
g29
g30
sg31
g32
sg33
g34
sg35
Nsg36
I00
sg37
I10
ssg38
(NNNNtp368
sg40
Nsa(dp369
g10
I1
sg11
Nsg12
(dp370
g14
g15
sg16
Nssg17
(dp371
g19
I00
sg20
(I0
I4
tp372
ssg22
Nsg23
F14.42
sg24
I01
sg25
F63.223999999999997
sg26
I1
sg27
(dp373
g29
g30
sg31
g32
sg33
g34
sg35
Nsg36
I00
sg37
I10
ssg38
(NNNNtp374
sg40
Nsa(dp375
g10
I1
sg11
Nsg12
(dp376
g14
g15
sg16
Nssg17
(dp377
g19
I00
sg20
(I0
I4
tp378
ssg22
Nsg23
F14.42
sg24
I01
sg25
F63.223999999999997
sg26
I1
sg27
(dp379
g29
g30
sg31
g32
sg33
g34
sg35
Nsg36
I00
sg37
I10
ssg38
(NNNNtp380
sg40
Nsa(dp381
g10
I1
sg11
Nsg12
(dp382
g14
g15
sg16
Nssg17
(dp383
g19
I00
sg20
(I0
I4
tp384
ssg22
Nsg23
F14.42
sg24
I01
sg25
F63.223999999999997
sg26
I1
sg27
(dp385
g29
g30
sg31
g32
sg33
g34
sg35
Nsg36
I00
sg37
I10
ssg38
(NNNNtp386
sg40
Nsa(dp387
g10
I1
sg11
Nsg12
(dp388
g14
g15
sg16
Nssg17
(dp389
g19
I00
sg20
(I0
I4
tp390
ssg22
Nsg23
F14.42
sg24
I01
sg25
F63.223999999999997
sg26
I1
sg27
(dp391
g29
g30
sg31
g32
sg33
g34
sg35
Nsg36
I00
sg37
I10
ssg38
(NNNNtp392
sg40
Nsa(dp393
g10
I1
sg11
Nsg12
(dp394
g14
g15
sg16
Nssg17
(dp395
g19
I00
sg20
(I0
I4
tp396
ssg22
Nsg23
F14.42
sg24
I01
sg25
F63.223999999999997
sg26
I1
sg27
(dp397
g29
g30
sg31
g32
sg33
g34
sg35
Nsg36
I00
sg37
I10
ssg38
(NNNNtp398
sg40
Nsa(dp399
g10
I1
sg11
Nsg12
(dp400
g14
g15
sg16
Nssg17
(dp401
g19
I00
sg20
(I0
I4
tp402
ssg22
Nsg23
F14.42
sg24
I01
sg25
F63.223999999999997
sg26
I1
sg27
(dp403
g29
g30
sg31
g32
sg33
g34
sg35
Nsg36
I00
sg37
I10
ssg38
(NNNNtp404
sg40
Nsa(dp405
g10
I1
sg11
Nsg12
(dp406
g14
g15
sg16
Nssg17
(dp407
g19
I00
sg20
(I0
I4
tp408
ssg22
Nsg23
F14.42
sg24
I01
sg25
F63.223999999999997
sg26
I1
sg27
(dp409
g29
g30
sg31
g32
sg33
g34
sg35
Nsg36
I00
sg37
I10
ssg38
(NNNNtp410
sg40
Nsaa(lp411
(dp412
g10
I1
sg11
Nsg12
(dp413
g14
g15
sg16
Nssg17
(dp414
g19
I00
sg20
(I0
I4
tp415
ssg22
Nsg23
F15.708
sg24
I01
sg25
F63.223999999999997
sg26
I1
sg27
(dp416
g29
g30
sg31
g32
sg33
g34
sg35
Nsg36
I00
sg37
I10
ssg38
(NNNNtp417
sg40
Nsa(dp418
g10
I1
sg11
Nsg12
(dp419
g14
g15
sg16
Nssg17
(dp420
g19
I00
sg20
(I0
I4
tp421
ssg22
Nsg23
F15.708
sg24
I01
sg25
F238.392
sg26
I1
sg27
(dp422
g29
g30
sg31
g32
sg33
g34
sg35
Nsg36
I00
sg37
I10
ssg38
(NNNNtp423
sg40
Nsa(dp424
g10
I1
sg11
Nsg12
(dp425
g14
g15
sg16
Nssg17
(dp426
g19
I00
sg20
(I0
I4
tp427
ssg22
Nsg23
F15.708
sg24
I01
sg25
F63.223999999999997
sg26
I1
sg27
(dp428
g29
g30
sg31
g32
sg33
g34
sg35
Nsg36
I00
sg37
I10
ssg38
(NNNNtp429
sg40
Nsa(dp430
g10
I1
sg11
Nsg12
(dp431
g14
g15
sg16
Nssg17
(dp432
g19
I00
sg20
(I0
I4
tp433
ssg22
Nsg23
F15.708
sg24
I01
sg25
F63.223999999999997
sg26
I1
sg27
(dp434
g29
g30
sg31
g32
sg33
g34
sg35
Nsg36
I00
sg37
I10
ssg38
(NNNNtp435
sg40
Nsa(dp436
g10
I1
sg11
Nsg12
(dp437
g14
g15
sg16
(I150
I150
I150
tp438
ssg17
(dp439
g19
I01
sg20
(I1
I4
tp440
ssg22
S'\xd0\x9f\xd1\x80\xd0\xb8\xd1\x85\xd0\xbe\xd0\xb4\xd0\xbd\xd1\x8b\xd0\xb5 \xd0\xbe\xd0\xbf\xd0\xb5\xd1\x80\xd0\xb0\xd1\x86\xd0\xb8\xd0\xb8'
p441
sg23
F15.708
sg24
I01
sg25
F63.223999999999997
sg26
I6
sg27
(dp442
g29
g53
sg31
VArial
p443
sg33
g34
sg35
g443
sg36
I00
sg37
F10
ssg38
((dp444
g29
I0
sS'weight'
p445
I2
s(dp446
g29
I0
sg445
I2
s(dp447
g29
I0
sg445
I2
s(dp448
g29
I0
sg445
I2
stp449
sg40
Nsa(dp450
g10
I1
sg11
Nsg12
(dp451
g14
g15
sg16
(I153
I204
I255
tp452
ssg17
(dp453
g19
I00
sg20
(I0
I5
tp454
ssg22
Nsg23
F15.708
sg24
I01
sg25
F96.067999999999998
sg26
I1
sg27
(dp455
g29
g30
sg31
g62
sg33
g34
sg35
g62
sg36
I00
sg37
F10
ssg38
(NNNNtp456
sg40
Nsa(dp457
g10
I1
sg11
Nsg12
(dp458
g14
g15
sg16
(I102
I102
I153
tp459
ssg17
(dp460
g19
I00
sg20
(I0
I5
tp461
ssg22
Nsg23
F15.708
sg24
I01
sg25
F146.88800000000001
sg26
I1
sg27
(dp462
g29
g30
sg31
g84
sg33
g34
sg35
g84
sg36
I00
sg37
F10
ssg38
(NNNNtp463
sg40
Nsa(dp464
g10
I1
sg11
Nsg12
(dp465
g14
g15
sg16
Nssg17
(dp466
g19
I00
sg20
(I0
I4
tp467
ssg22
Nsg23
F15.708
sg24
I01
sg25
F63.223999999999997
sg26
I1
sg27
(dp468
g29
g30
sg31
g32
sg33
g34
sg35
Nsg36
I00
sg37
I10
ssg38
(NNNNtp469
sg40
Nsa(dp470
g10
I1
sg11
Nsg12
(dp471
g14
g15
sg16
Nssg17
(dp472
g19
I00
sg20
(I0
I4
tp473
ssg22
Nsg23
F15.708
sg24
I01
sg25
F63.223999999999997
sg26
I1
sg27
(dp474
g29
g30
sg31
g32
sg33
g34
sg35
Nsg36
I00
sg37
I10
ssg38
(NNNNtp475
sg40
Nsa(dp476
g10
I1
sg11
Nsg12
(dp477
g14
g15
sg16
Nssg17
(dp478
g19
I00
sg20
(I0
I4
tp479
ssg22
Nsg23
F15.708
sg24
I01
sg25
F63.223999999999997
sg26
I1
sg27
(dp480
g29
g30
sg31
g32
sg33
g34
sg35
Nsg36
I00
sg37
I10
ssg38
(NNNNtp481
sg40
Nsa(dp482
g10
I1
sg11
Nsg12
(dp483
g14
g15
sg16
(I150
I150
I150
tp484
ssg17
(dp485
g19
I01
sg20
(I1
I4
tp486
ssg22
S'\xd0\xa0\xd0\xb0\xd1\x81\xd1\x85\xd0\xbe\xd0\xb4\xd0\xbd\xd1\x8b\xd0\xb5 \xd0\xbe\xd0\xbf\xd0\xb5\xd1\x80\xd0\xb0\xd1\x86\xd0\xb8\xd0\xb8'
p487
sg23
F15.708
sg24
I01
sg25
F63.223999999999997
sg26
I7
sg27
(dp488
g29
g53
sg31
g443
sg33
g34
sg35
g443
sg36
I00
sg37
F10
ssg38
((dp489
g29
I0
sg445
I2
s(dp490
g29
I0
sg445
I2
s(dp491
g29
I0
sg445
I2
s(dp492
g29
I0
sg445
I2
stp493
sg40
Nsa(dp494
g10
I1
sg11
Nsg12
(dp495
g14
g15
sg16
Nssg17
(dp496
g19
I00
sg20
(I0
I4
tp497
ssg22
Nsg23
F15.708
sg24
I01
sg25
F63.223999999999997
sg26
I1
sg27
(dp498
g29
g30
sg31
g32
sg33
g34
sg35
Nsg36
I00
sg37
I10
ssg38
(NNNNtp499
sg40
Nsa(dp500
g10
I1
sg11
Nsg12
(dp501
g14
g15
sg16
Nssg17
(dp502
g19
I00
sg20
(I0
I4
tp503
ssg22
Nsg23
F15.708
sg24
I01
sg25
F63.223999999999997
sg26
I1
sg27
(dp504
g29
g30
sg31
g32
sg33
g34
sg35
Nsg36
I00
sg37
I10
ssg38
(NNNNtp505
sg40
Nsa(dp506
g10
I1
sg11
Nsg12
(dp507
g14
g15
sg16
Nssg17
(dp508
g19
I00
sg20
(I0
I4
tp509
ssg22
Nsg23
F15.708
sg24
I01
sg25
F63.223999999999997
sg26
I1
sg27
(dp510
g29
g30
sg31
g32
sg33
g34
sg35
Nsg36
I00
sg37
I10
ssg38
(NNNNtp511
sg40
Nsa(dp512
g10
I1
sg11
Nsg12
(dp513
g14
g15
sg16
Nssg17
(dp514
g19
I00
sg20
(I0
I4
tp515
ssg22
Nsg23
F15.708
sg24
I01
sg25
F63.223999999999997
sg26
I1
sg27
(dp516
g29
g30
sg31
g32
sg33
g34
sg35
Nsg36
I00
sg37
I10
ssg38
(NNNNtp517
sg40
Nsa(dp518
g10
I1
sg11
Nsg12
(dp519
g14
g15
sg16
Nssg17
(dp520
g19
I00
sg20
(I0
I4
tp521
ssg22
Nsg23
F15.708
sg24
I01
sg25
F63.223999999999997
sg26
I1
sg27
(dp522
g29
g30
sg31
g32
sg33
g34
sg35
Nsg36
I00
sg37
I10
ssg38
(NNNNtp523
sg40
Nsa(dp524
g10
I1
sg11
Nsg12
(dp525
g14
g15
sg16
Nssg17
(dp526
g19
I00
sg20
(I0
I4
tp527
ssg22
Nsg23
F15.708
sg24
I01
sg25
F63.223999999999997
sg26
I1
sg27
(dp528
g29
g30
sg31
g32
sg33
g34
sg35
Nsg36
I00
sg37
I10
ssg38
(NNNNtp529
sg40
Nsa(dp530
g10
I1
sg11
Nsg12
(dp531
g14
g15
sg16
(I150
I150
I150
tp532
ssg17
(dp533
g19
I01
sg20
(I1
I4
tp534
ssg22
S'\xd0\x9e\xd1\x81\xd1\x82\xd0\xb0\xd1\x82\xd0\xbe\xd0\xba \xd0\xbd\xd0\xb0 \xd0\xba\xd0\xbe\xd0\xbd\xd0\xb5\xd1\x86 \xd0\xbf\xd0\xb5\xd1\x80\xd0\xb8\xd0\xbe\xd0\xb4\xd0\xb0'
p535
sg23
F15.708
sg24
I01
sg25
F63.223999999999997
sg26
I3
sg27
(dp536
g29
g53
sg31
g443
sg33
g34
sg35
g443
sg36
I00
sg37
F10
ssg38
((dp537
g29
I0
sg445
I2
s(dp538
g29
I0
sg445
I2
s(dp539
g29
I0
sg445
I2
s(dp540
g29
I0
sg445
I2
stp541
sg40
Nsa(dp542
g10
I1
sg11
Nsg12
(dp543
g14
g15
sg16
Nssg17
(dp544
g19
I00
sg20
(I0
I4
tp545
ssg22
Nsg23
F15.708
sg24
I01
sg25
F63.223999999999997
sg26
I1
sg27
(dp546
g29
g30
sg31
g32
sg33
g34
sg35
Nsg36
I00
sg37
I10
ssg38
(NNNNtp547
sg40
Nsa(dp548
g10
I1
sg11
Nsg12
(dp549
g14
g15
sg16
Nssg17
(dp550
g19
I00
sg20
(I0
I4
tp551
ssg22
Nsg23
F15.708
sg24
I01
sg25
F63.223999999999997
sg26
I1
sg27
(dp552
g29
g30
sg31
g32
sg33
g34
sg35
Nsg36
I00
sg37
I10
ssg38
(NNNNtp553
sg40
Nsaa(lp554
(dp555
g10
I1
sg11
Nsg12
(dp556
g14
g15
sg16
(I150
I150
I150
tp557
ssg17
(dp558
g19
I01
sg20
(I1
I4
tp559
ssg22
S'\xd0\xa0\xd0\xb5\xd0\xb3\xd0\xb8\xd0\xbe\xd0\xbd'
p560
sg23
F51.072000000000003
sg24
I01
sg25
F63.223999999999997
sg26
I1
sg27
(dp561
g29
g53
sg31
g443
sg33
g34
sg35
g443
sg36
I00
sg37
F10
ssg38
((dp562
g29
I0
sg445
I2
s(dp563
g29
I0
sg445
I2
s(dp564
g29
I0
sg445
I2
s(dp565
g29
I0
sg445
I2
stp566
sg40
Nsa(dp567
g10
I1
sg11
Nsg12
(dp568
g14
g15
sg16
(I150
I150
I150
tp569
ssg17
(dp570
g19
I01
sg20
(I1
I4
tp571
ssg22
S'\xd0\xa1\xd0\xba\xd0\xbb\xd0\xb0\xd0\xb4 \xd0\xb4\xd0\xb8\xd0\xbb\xd0\xb5\xd1\x80\xd0\xb0'
p572
sg23
F51.072000000000003
sg24
I01
sg25
F238.392
sg26
I1
sg27
(dp573
g29
g53
sg31
g443
sg33
g34
sg35
g443
sg36
I00
sg37
F10
ssg38
((dp574
g29
I0
sg445
I2
s(dp575
g29
I0
sg445
I2
s(dp576
g29
I0
sg445
I2
s(dp577
g29
I0
sg445
I2
stp578
sg40
Nsa(dp579
g10
I1
sg11
Nsg12
(dp580
g14
g15
sg16
(I150
I150
I150
tp581
ssg17
(dp582
g19
I01
sg20
(I1
I4
tp583
ssg22
S'\xd0\x9e\xd1\x81\xd1\x82\xd0\xb0\xd1\x82\xd0\xbe\xd0\xba \xd0\xbd\xd0\xb0 \xd0\xbd\xd0\xb0\xd1\x87\xd0\xb0\xd0\xbb\xd0\xbe \xd0\xbf\xd0\xb5\xd1\x80\xd0\xb8\xd0\xbe\xd0\xb4\xd0\xb0'
p584
sg23
F51.072000000000003
sg24
I01
sg25
F63.223999999999997
sg26
I1
sg27
(dp585
g29
g53
sg31
g443
sg33
g34
sg35
g443
sg36
I00
sg37
F10
ssg38
((dp586
g29
I0
sg445
I2
s(dp587
g29
I0
sg445
I2
s(dp588
g29
I0
sg445
I2
s(dp589
g29
I0
sg445
I2
stp590
sg40
Nsa(dp591
g10
I1
sg11
Nsg12
(dp592
g14
g15
sg16
(I150
I150
I150
tp593
ssg17
(dp594
g19
I01
sg20
(I1
I4
tp595
ssg22
S'\xd0\x9e\xd1\x82\xd0\xb3\xd1\x80\xd1\x83\xd0\xb6\xd0\xb5\xd0\xbd\xd0\xbe \xd1\x81 \xd0\xb7\xd0\xb0\xd0\xb2\xd0\xbe\xd0\xb4\xd0\xb0'
p596
sg23
F51.072000000000003
sg24
I01
sg25
F63.223999999999997
sg26
I1
sg27
(dp597
g29
g53
sg31
g443
sg33
g34
sg35
g443
sg36
I00
sg37
F10
ssg38
((dp598
g29
I0
sg445
I2
s(dp599
g29
I0
sg445
I2
s(dp600
g29
I0
sg445
I2
s(dp601
g29
I0
sg445
I2
stp602
sg40
Nsa(dp603
g10
I1
sg11
Nsg12
(dp604
g14
g15
sg16
(I150
I150
I150
tp605
ssg17
(dp606
g19
I01
sg20
(I1
I4
tp607
ssg22
S'\xd0\x9f\xd0\xbe\xd1\x81\xd1\x82\xd1\x83\xd0\xbf\xd0\xbb\xd0\xb5\xd0\xbd\xd0\xb8\xd0\xb5 \xd0\xbe\xd1\x82 \xd0\xbf\xd0\xbe\xd1\x81\xd1\x82\xd0\xb0\xd0\xb2\xd1\x88\xd0\xb8\xd0\xba\xd0\xb0'
p608
sg23
F51.072000000000003
sg24
I01
sg25
F63.223999999999997
sg26
I1
sg27
(dp609
g29
g53
sg31
g443
sg33
g34
sg35
g443
sg36
I00
sg37
F10
ssg38
((dp610
g29
I0
sg445
I2
s(dp611
g29
I0
sg445
I2
s(dp612
g29
I0
sg445
I2
s(dp613
g29
I0
sg445
I2
stp614
sg40
Nsa(dp615
g10
I1
sg11
Nsg12
(dp616
g14
g15
sg16
(I150
I150
I150
tp617
ssg17
(dp618
g19
I01
sg20
(I1
I4
tp619
ssg22
S'\xd0\x92\xd0\xbd\xd1\x83\xd1\x82\xd1\x80\xd0\xb5\xd0\xbd\xd0\xbd\xd0\xb8\xd0\xb9 \xd0\xbf\xd1\x80\xd0\xb8\xd1\x85\xd0\xbe\xd0\xb4'
p620
sg23
F51.072000000000003
sg24
I01
sg25
F96.067999999999998
sg26
I1
sg27
(dp621
g29
g53
sg31
g443
sg33
g34
sg35
g443
sg36
I00
sg37
F10
ssg38
((dp622
g29
I0
sg445
I2
s(dp623
g29
I0
sg445
I2
s(dp624
g29
I0
sg445
I2
s(dp625
g29
I0
sg445
I2
stp626
sg40
Nsa(dp627
g10
I1
sg11
Nsg12
(dp628
g14
g15
sg16
(I150
I150
I150
tp629
ssg17
(dp630
g19
I01
sg20
(I1
I4
tp631
ssg22
S'\xd0\x92\xd0\xbe\xd0\xb7\xd0\xb2\xd1\x80\xd0\xb0\xd1\x82 \xd0\xbf\xd0\xbe\xd1\x81\xd1\x82\xd0\xb0\xd0\xb2\xd1\x89\xd0\xb8\xd0\xba\xd1\x83'
p632
sg23
F51.072000000000003
sg24
I01
sg25
F146.88800000000001
sg26
I1
sg27
(dp633
g29
g53
sg31
g443
sg33
g34
sg35
g443
sg36
I00
sg37
F10
ssg38
((dp634
g29
I0
sg445
I2
s(dp635
g29
I0
sg445
I2
s(dp636
g29
I0
sg445
I2
s(dp637
g29
I0
sg445
I2
stp638
sg40
Nsa(dp639
g10
I1
sg11
Nsg12
(dp640
g14
g15
sg16
(I150
I150
I150
tp641
ssg17
(dp642
g19
I01
sg20
(I1
I4
tp643
ssg22
S'\xd0\x92\xd0\xbe\xd0\xb7\xd0\xb2\xd1\x80\xd0\xb0\xd1\x82 \xd1\x81 \xd0\xb2\xd0\xbd\xd1\x83\xd1\x82\xd1\x80\xd0\xb5\xd0\xbd\xd0\xbd\xd0\xb5\xd0\xb3\xd0\xbe \xd0\xbf\xd1\x80\xd0\xb8\xd1\x85\xd0\xbe\xd0\xb4\xd0\xb0'
p644
sg23
F51.072000000000003
sg24
I01
sg25
F63.223999999999997
sg26
I1
sg27
(dp645
g29
g53
sg31
g443
sg33
g34
sg35
g443
sg36
I00
sg37
F10
ssg38
((dp646
g29
I0
sg445
I2
s(dp647
g29
I0
sg445
I2
s(dp648
g29
I0
sg445
I2
s(dp649
g29
I0
sg445
I2
stp650
sg40
Nsa(dp651
g10
I1
sg11
Nsg12
(dp652
g14
g15
sg16
(I150
I150
I150
tp653
ssg17
(dp654
g19
I01
sg20
(I1
I4
tp655
ssg22
S'\xd0\x9f\xd1\x80\xd0\xbe\xd1\x87\xd0\xb8\xd0\xb5 \xd0\xbf\xd1\x80\xd0\xb8\xd1\x85\xd0\xbe\xd0\xb4\xd0\xbd\xd1\x8b\xd0\xb5 \xd0\xbe\xd0\xbf\xd0\xb5\xd1\x80\xd0\xb0\xd1\x86\xd0\xb8\xd0\xb8'
p656
sg23
F51.072000000000003
sg24
I01
sg25
F63.223999999999997
sg26
I1
sg27
(dp657
g29
g53
sg31
g443
sg33
g34
sg35
g443
sg36
I00
sg37
F10
ssg38
((dp658
g29
I0
sg445
I2
s(dp659
g29
I0
sg445
I2
s(dp660
g29
I0
sg445
I2
s(dp661
g29
I0
sg445
I2
stp662
sg40
Nsa(dp663
g10
I1
sg11
Nsg12
(dp664
g14
g15
sg16
(I150
I150
I150
tp665
ssg17
(dp666
g19
I01
sg20
(I1
I4
tp667
ssg22
S'\xd0\xa0\xd0\xb0\xd1\x81\xd1\x87\xd0\xb5\xd1\x82\xd0\xbd\xd1\x8b\xd0\xb9 \xd0\xbf\xd1\x80\xd0\xb8\xd1\x85\xd0\xbe\xd0\xb4'
p668
sg23
F51.072000000000003
sg24
I01
sg25
F63.223999999999997
sg26
I1
sg27
(dp669
g29
g53
sg31
g443
sg33
g34
sg35
g443
sg36
I00
sg37
F10
ssg38
((dp670
g29
I0
sg445
I2
s(dp671
g29
I0
sg445
I2
s(dp672
g29
I0
sg445
I2
s(dp673
g29
I0
sg445
I2
stp674
sg40
Nsa(dp675
g10
I1
sg11
Nsg12
(dp676
g14
g15
sg16
(I150
I150
I150
tp677
ssg17
(dp678
g19
I01
sg20
(I1
I4
tp679
ssg22
S'\xd0\x9f\xd1\x80\xd0\xbe\xd0\xb4\xd0\xb0\xd0\xb6\xd0\xb0 \xd0\xbf\xd0\xbe\xd0\xba\xd1\x83\xd0\xbf\xd0\xb0\xd1\x82\xd0\xb5\xd0\xbb\xd1\x8f\xd0\xbc'
p680
sg23
F51.072000000000003
sg24
I01
sg25
F63.223999999999997
sg26
I1
sg27
(dp681
g29
g53
sg31
g443
sg33
g34
sg35
g443
sg36
I00
sg37
F10
ssg38
((dp682
g29
I0
sg445
I2
s(dp683
g29
I0
sg445
I2
s(dp684
g29
I0
sg445
I2
s(dp685
g29
I0
sg445
I2
stp686
sg40
Nsa(dp687
g10
I1
sg11
Nsg12
(dp688
g14
g15
sg16
(I150
I150
I150
tp689
ssg17
(dp690
g19
I01
sg20
(I1
I4
tp691
ssg22
S'\xd0\x92\xd0\xbd\xd1\x83\xd1\x82\xd1\x80\xd0\xb5\xd0\xbd\xd0\xbd\xd0\xb8\xd0\xb9 \xd1\x80\xd0\xb0\xd1\x81\xd1\x85\xd0\xbe\xd0\xb4'
p692
sg23
F51.072000000000003
sg24
I01
sg25
F63.223999999999997
sg26
I1
sg27
(dp693
g29
g53
sg31
g443
sg33
g34
sg35
g443
sg36
I00
sg37
F10
ssg38
((dp694
g29
I0
sg445
I2
s(dp695
g29
I0
sg445
I2
s(dp696
g29
I0
sg445
I2
s(dp697
g29
I0
sg445
I2
stp698
sg40
Nsa(dp699
g10
I1
sg11
Nsg12
(dp700
g14
g15
sg16
(I150
I150
I150
tp701
ssg17
(dp702
g19
I01
sg20
(I1
I4
tp703
ssg22
S'\xd0\x92\xd0\xbe\xd0\xb7\xd0\xb2\xd1\x80\xd0\xb0\xd1\x82 \xd0\xbe\xd1\x82 \xd0\xbf\xd0\xbe\xd0\xba\xd1\x83\xd0\xbf\xd0\xb0\xd1\x82\xd0\xb5\xd0\xbb\xd1\x8f'
p704
sg23
F51.072000000000003
sg24
I01
sg25
F63.223999999999997
sg26
I1
sg27
(dp705
g29
g53
sg31
g443
sg33
g34
sg35
g443
sg36
I00
sg37
F10
ssg38
((dp706
g29
I0
sg445
I2
s(dp707
g29
I0
sg445
I2
s(dp708
g29
I0
sg445
I2
s(dp709
g29
I0
sg445
I2
stp710
sg40
Nsa(dp711
g10
I1
sg11
Nsg12
(dp712
g14
g15
sg16
(I150
I150
I150
tp713
ssg17
(dp714
g19
I01
sg20
(I1
I4
tp715
ssg22
S'\xd0\x92\xd0\xbe\xd0\xb7\xd0\xb2\xd1\x80\xd0\xb0\xd1\x82 \xd1\x81 \xd0\xb2\xd0\xbd\xd1\x83\xd1\x82\xd1\x80\xd0\xb5\xd0\xbd\xd0\xbd\xd0\xb5\xd0\xb3\xd0\xbe \xd1\x80\xd0\xb0\xd1\x81\xd1\x85\xd0\xbe\xd0\xb4\xd0\xb0'
p716
sg23
F51.072000000000003
sg24
I01
sg25
F63.223999999999997
sg26
I1
sg27
(dp717
g29
g53
sg31
g443
sg33
g34
sg35
g443
sg36
I00
sg37
F10
ssg38
((dp718
g29
I0
sg445
I2
s(dp719
g29
I0
sg445
I2
s(dp720
g29
I0
sg445
I2
s(dp721
g29
I0
sg445
I2
stp722
sg40
Nsa(dp723
g10
I1
sg11
Nsg12
(dp724
g14
g15
sg16
(I150
I150
I150
tp725
ssg17
(dp726
g19
I01
sg20
(I1
I4
tp727
ssg22
S'\xd0\xa0\xd0\xb5\xd0\xb0\xd0\xbb\xd0\xb8\xd0\xb7\xd0\xbe\xd0\xb2\xd0\xb0\xd0\xbd\xd0\xbe \xd0\xb7\xd0\xb0 \xd0\xbd\xd0\xb0\xd0\xbb\xd0\xb8\xd1\x87\xd0\xbd\xd1\x8b\xd0\xb5'
p728
sg23
F51.072000000000003
sg24
I01
sg25
F63.223999999999997
sg26
I1
sg27
(dp729
g29
g53
sg31
g443
sg33
g34
sg35
g443
sg36
I00
sg37
F10
ssg38
((dp730
g29
I0
sg445
I2
s(dp731
g29
I0
sg445
I2
s(dp732
g29
I0
sg445
I2
s(dp733
g29
I0
sg445
I2
stp734
sg40
Nsa(dp735
g10
I1
sg11
Nsg12
(dp736
g14
g15
sg16
(I150
I150
I150
tp737
ssg17
(dp738
g19
I01
sg20
(I1
I4
tp739
ssg22
S'\xd0\x9f\xd1\x80\xd0\xbe\xd1\x87\xd0\xb8\xd0\xb5 \xd0\xbf\xd1\x80\xd0\xb8\xd1\x85\xd0\xbe\xd0\xb4\xd0\xbd\xd1\x8b\xd0\xb5 \xd0\xbe\xd0\xbf\xd0\xb5\xd1\x80\xd0\xb0\xd1\x86\xd0\xb8\xd0\xb8'
p740
sg23
F51.072000000000003
sg24
I01
sg25
F63.223999999999997
sg26
I1
sg27
(dp741
g29
g53
sg31
g443
sg33
g34
sg35
g443
sg36
I00
sg37
F10
ssg38
((dp742
g29
I0
sg445
I2
s(dp743
g29
I0
sg445
I2
s(dp744
g29
I0
sg445
I2
s(dp745
g29
I0
sg445
I2
stp746
sg40
Nsa(dp747
g10
I1
sg11
Nsg12
(dp748
g14
g15
sg16
(I150
I150
I150
tp749
ssg17
(dp750
g19
I01
sg20
(I1
I4
tp751
ssg22
S'\xd0\xa0\xd0\xb0\xd1\x81\xd1\x87\xd0\xb5\xd1\x82\xd0\xbd\xd1\x8b\xd0\xb9 \xd1\x80\xd0\xb0\xd1\x81\xd1\x85\xd0\xbe\xd0\xb4'
p752
sg23
F51.072000000000003
sg24
I01
sg25
F63.223999999999997
sg26
I1
sg27
(dp753
g29
g53
sg31
g443
sg33
g34
sg35
g443
sg36
I00
sg37
F10
ssg38
((dp754
g29
I0
sg445
I2
s(dp755
g29
I0
sg445
I2
s(dp756
g29
I0
sg445
I2
s(dp757
g29
I0
sg445
I2
stp758
sg40
Nsa(dp759
g10
I1
sg11
Nsg12
(dp760
g14
g15
sg16
(I150
I150
I150
tp761
ssg17
(dp762
g19
I01
sg20
(I1
I4
tp763
ssg22
S'\xd0\x97\xd0\xb0\xd1\x8f\xd0\xb2\xd0\xbb\xd0\xb5\xd0\xbd\xd0\xbd\xd1\x8b\xd0\xb9 \xd0\xb4\xd0\xb8\xd0\xbb\xd0\xb5\xd1\x80\xd0\xbe\xd0\xbc \xd0\xbe\xd1\x81\xd1\x82\xd0\xb0\xd1\x82\xd0\xbe\xd0\xba'
p764
sg23
F51.072000000000003
sg24
I01
sg25
F63.223999999999997
sg26
I1
sg27
(dp765
g29
g53
sg31
g443
sg33
g34
sg35
g443
sg36
I00
sg37
F10
ssg38
((dp766
g29
I0
sg445
I2
s(dp767
g29
I0
sg445
I2
s(dp768
g29
I0
sg445
I2
s(dp769
g29
I0
sg445
I2
stp770
sg40
Nsa(dp771
g10
I1
sg11
Nsg12
(dp772
g14
g15
sg16
(I150
I150
I150
tp773
ssg17
(dp774
g19
I01
sg20
(I1
I4
tp775
ssg22
S'\xd0\xa0\xd0\xb0\xd1\x81\xd1\x87\xd0\xb5\xd1\x82\xd0\xbd\xd1\x8b\xd0\xb9 \xd0\xbe\xd1\x81\xd1\x82\xd0\xb0\xd1\x82\xd0\xbe\xd0\xba'
p776
sg23
F51.072000000000003
sg24
I01
sg25
F63.223999999999997
sg26
I1
sg27
(dp777
g29
g53
sg31
g443
sg33
g34
sg35
g443
sg36
I00
sg37
F10
ssg38
((dp778
g29
I0
sg445
I2
s(dp779
g29
I0
sg445
I2
s(dp780
g29
I0
sg445
I2
s(dp781
g29
I0
sg445
I2
stp782
sg40
Nsa(dp783
g10
I1
sg11
Nsg12
(dp784
g14
g15
sg16
(I150
I150
I150
tp785
ssg17
(dp786
g19
I01
sg20
(I1
I4
tp787
ssg22
S'\xd0\xa0\xd0\xb0\xd1\x81\xd1\x85\xd0\xbe\xd0\xb6\xd0\xb4\xd0\xb5\xd0\xbd\xd0\xb8\xd0\xb5 \xd0\xbc\xd0\xb5\xd0\xb6\xd0\xb4\xd1\x83 \xd1\x80\xd0\xb0\xd1\x81\xd1\x87\xd0\xb5\xd1\x82\xd0\xbd\xd1\x8b\xd0\xbc \xd0\xb8 \xd0\xb7\xd0\xb0\xd1\x8f\xd0\xb2\xd0\xbb\xd0\xb5\xd0\xbd\xd0\xbd\xd1\x8b\xd0\xbc'
p788
sg23
F51.072000000000003
sg24
I01
sg25
F63.223999999999997
sg26
I1
sg27
(dp789
g29
g53
sg31
g443
sg33
g34
sg35
g443
sg36
I00
sg37
F10
ssg38
((dp790
g29
I0
sg445
I2
s(dp791
g29
I0
sg445
I2
s(dp792
g29
I0
sg445
I2
s(dp793
g29
I0
sg445
I2
stp794
sg40
Nsaa(lp795
(dp796
g10
I1
sg11
S'X0,00'
p797
sg12
(dp798
g14
g15
sg16
Nssg17
(dp799
g19
I00
sg20
(I0
I4
tp800
ssg22
Nsg23
F4.9000000000000004
sg24
I01
sg25
F63.223999999999997
sg26
I1
sg27
(dp801
g29
g30
sg31
g32
sg33
g34
sg35
Nsg36
I00
sg37
I10
ssg38
(NNNNtp802
sg40
Nsa(dp803
g10
I1
sg11
S'X0,00'
p804
sg12
(dp805
g14
g15
sg16
Nssg17
(dp806
g19
I00
sg20
(I0
I4
tp807
ssg22
Nsg23
F4.9000000000000004
sg24
I01
sg25
F238.392
sg26
I1
sg27
(dp808
g29
g30
sg31
g32
sg33
g34
sg35
Nsg36
I00
sg37
I10
ssg38
(NNNNtp809
sg40
Nsa(dp810
g10
I1
sg11
S'X0,00'
p811
sg12
(dp812
g14
g15
sg16
Nssg17
(dp813
g19
I00
sg20
(I0
I4
tp814
ssg22
Nsg23
F4.9000000000000004
sg24
I01
sg25
F63.223999999999997
sg26
I1
sg27
(dp815
g29
g30
sg31
g32
sg33
g34
sg35
Nsg36
I00
sg37
I10
ssg38
(NNNNtp816
sg40
Nsa(dp817
g10
I1
sg11
S'X0,00'
p818
sg12
(dp819
g14
g15
sg16
Nssg17
(dp820
g19
I00
sg20
(I0
I4
tp821
ssg22
Nsg23
F4.9000000000000004
sg24
I01
sg25
F63.223999999999997
sg26
I1
sg27
(dp822
g29
g30
sg31
VArial
p823
sg33
g34
sg35
g823
sg36
I00
sg37
F10
ssg38
(NNNNtp824
sg40
Nsa(dp825
g10
I1
sg11
S'X0,00'
p826
sg12
(dp827
g14
g15
sg16
Nssg17
(dp828
g19
I00
sg20
(I0
I4
tp829
ssg22
Nsg23
F4.9000000000000004
sg24
I01
sg25
F63.223999999999997
sg26
I1
sg27
(dp830
g29
g30
sg31
g32
sg33
g34
sg35
Nsg36
I00
sg37
I10
ssg38
(NNNNtp831
sg40
Nsa(dp832
g10
I1
sg11
S'X0,00'
p833
sg12
(dp834
g14
g15
sg16
Nssg17
(dp835
g19
I00
sg20
(I0
I4
tp836
ssg22
Nsg23
F4.9000000000000004
sg24
I01
sg25
F96.067999999999998
sg26
I1
sg27
(dp837
g29
g30
sg31
g32
sg33
g34
sg35
Nsg36
I00
sg37
I10
ssg38
(NNNNtp838
sg40
Nsa(dp839
g10
I1
sg11
S'X0,00'
p840
sg12
(dp841
g14
g15
sg16
Nssg17
(dp842
g19
I00
sg20
(I0
I4
tp843
ssg22
Nsg23
F4.9000000000000004
sg24
I01
sg25
F146.88800000000001
sg26
I1
sg27
(dp844
g29
g30
sg31
g32
sg33
g34
sg35
Nsg36
I00
sg37
I10
ssg38
(NNNNtp845
sg40
Nsa(dp846
g10
I1
sg11
S'X0,00'
p847
sg12
(dp848
g14
g15
sg16
Nssg17
(dp849
g19
I00
sg20
(I0
I4
tp850
ssg22
Nsg23
F4.9000000000000004
sg24
I01
sg25
F63.223999999999997
sg26
I1
sg27
(dp851
g29
g30
sg31
g32
sg33
g34
sg35
Nsg36
I00
sg37
I10
ssg38
(NNNNtp852
sg40
Nsa(dp853
g10
I1
sg11
S'X0,00'
p854
sg12
(dp855
g14
g15
sg16
Nssg17
(dp856
g19
I00
sg20
(I0
I4
tp857
ssg22
Nsg23
F4.9000000000000004
sg24
I01
sg25
F63.223999999999997
sg26
I1
sg27
(dp858
g29
g30
sg31
g32
sg33
g34
sg35
Nsg36
I00
sg37
I10
ssg38
(NNNNtp859
sg40
Nsa(dp860
g10
I1
sg11
S'X0,00'
p861
sg12
(dp862
g14
g15
sg16
Nssg17
(dp863
g19
I00
sg20
(I0
I4
tp864
ssg22
Nsg23
F4.9000000000000004
sg24
I01
sg25
F63.223999999999997
sg26
I1
sg27
(dp865
g29
g30
sg31
g823
sg33
g34
sg35
g823
sg36
I00
sg37
F10
ssg38
(NNNNtp866
sg40
Nsa(dp867
g10
I1
sg11
S'X0,00'
p868
sg12
(dp869
g14
g15
sg16
Nssg17
(dp870
g19
I00
sg20
(I0
I4
tp871
ssg22
Nsg23
F4.9000000000000004
sg24
I01
sg25
F63.223999999999997
sg26
I1
sg27
(dp872
g29
g30
sg31
g32
sg33
g34
sg35
Nsg36
I00
sg37
I10
ssg38
(NNNNtp873
sg40
Nsa(dp874
g10
I1
sg11
S'X0,00'
p875
sg12
(dp876
g14
g15
sg16
Nssg17
(dp877
g19
I00
sg20
(I0
I4
tp878
ssg22
Nsg23
F4.9000000000000004
sg24
I01
sg25
F63.223999999999997
sg26
I1
sg27
(dp879
g29
g30
sg31
g32
sg33
g34
sg35
Nsg36
I00
sg37
I10
ssg38
(NNNNtp880
sg40
Nsa(dp881
g10
I1
sg11
S'X0,00'
p882
sg12
(dp883
g14
g15
sg16
Nssg17
(dp884
g19
I00
sg20
(I0
I4
tp885
ssg22
Nsg23
F4.9000000000000004
sg24
I01
sg25
F63.223999999999997
sg26
I1
sg27
(dp886
g29
g30
sg31
g32
sg33
g34
sg35
Nsg36
I00
sg37
I10
ssg38
(NNNNtp887
sg40
Nsa(dp888
g10
I1
sg11
S'X0,00'
p889
sg12
(dp890
g14
g15
sg16
Nssg17
(dp891
g19
I00
sg20
(I0
I4
tp892
ssg22
Nsg23
F4.9000000000000004
sg24
I01
sg25
F63.223999999999997
sg26
I1
sg27
(dp893
g29
g30
sg31
g32
sg33
g34
sg35
Nsg36
I00
sg37
I10
ssg38
(NNNNtp894
sg40
Nsa(dp895
g10
I1
sg11
S'X0,00'
p896
sg12
(dp897
g14
g15
sg16
Nssg17
(dp898
g19
I00
sg20
(I0
I4
tp899
ssg22
Nsg23
F4.9000000000000004
sg24
I01
sg25
F63.223999999999997
sg26
I1
sg27
(dp900
g29
g30
sg31
g32
sg33
g34
sg35
Nsg36
I00
sg37
I10
ssg38
(NNNNtp901
sg40
Nsa(dp902
g10
I1
sg11
S'X0,00'
p903
sg12
(dp904
g14
g15
sg16
Nssg17
(dp905
g19
I00
sg20
(I0
I4
tp906
ssg22
Nsg23
F4.9000000000000004
sg24
I01
sg25
F63.223999999999997
sg26
I1
sg27
(dp907
g29
g30
sg31
g32
sg33
g34
sg35
Nsg36
I00
sg37
I10
ssg38
(NNNNtp908
sg40
Nsa(dp909
g10
I1
sg11
S'X0,00'
p910
sg12
(dp911
g14
g15
sg16
Nssg17
(dp912
g19
I00
sg20
(I0
I4
tp913
ssg22
Nsg23
F4.9000000000000004
sg24
I01
sg25
F63.223999999999997
sg26
I1
sg27
(dp914
g29
g30
sg31
g823
sg33
g34
sg35
g823
sg36
I00
sg37
F10
ssg38
(NNNNtp915
sg40
Nsa(dp916
g10
I1
sg11
S'X0,00'
p917
sg12
(dp918
g14
g15
sg16
Nssg17
(dp919
g19
I00
sg20
(I0
I4
tp920
ssg22
Nsg23
F4.9000000000000004
sg24
I01
sg25
F63.223999999999997
sg26
I1
sg27
(dp921
g29
g30
sg31
g32
sg33
g34
sg35
Nsg36
I00
sg37
I10
ssg38
(NNNNtp922
sg40
Nsa(dp923
g10
I1
sg11
S'X0,00'
p924
sg12
(dp925
g14
g15
sg16
Nssg17
(dp926
g19
I00
sg20
(I0
I4
tp927
ssg22
Nsg23
F4.9000000000000004
sg24
I01
sg25
F63.223999999999997
sg26
I1
sg27
(dp928
g29
g30
sg31
g32
sg33
g34
sg35
Nsg36
I00
sg37
I10
ssg38
(NNNNtp929
sg40
Nsa(dp930
g10
I1
sg11
S'X0,00'
p931
sg12
(dp932
g14
g15
sg16
(I192
I192
I192
tp933
ssg17
(dp934
g19
I00
sg20
(I0
I4
tp935
ssg22
Nsg23
F4.9000000000000004
sg24
I01
sg25
F63.223999999999997
sg26
I1
sg27
(dp936
g29
g53
sg31
VArial
p937
sg33
g34
sg35
g937
sg36
I00
sg37
F10
ssg38
(NNNNtp938
sg40
Nsaa(lp939
(dp940
g10
I1
sg11
S'X0,00'
p941
sg12
(dp942
g14
g15
sg16
Nssg17
(dp943
g19
I00
sg20
(I0
I4
tp944
ssg22
S"['region']"
p945
sg23
F14.42
sg24
I01
sg25
F63.223999999999997
sg26
I1
sg27
(dp946
g29
g30
sg31
g32
sg33
g34
sg35
Nsg36
I00
sg37
I10
ssg38
(NNNNtp947
sg40
Nsa(dp948
g10
I1
sg11
S'X0,00'
p949
sg12
(dp950
g14
g15
sg16
Nssg17
(dp951
g19
I00
sg20
(I0
I4
tp952
ssg22
S"['company']"
p953
sg23
F14.42
sg24
I01
sg25
F238.392
sg26
I1
sg27
(dp954
g29
g30
sg31
g32
sg33
g34
sg35
Nsg36
I00
sg37
I10
ssg38
(NNNNtp955
sg40
Nsa(dp956
g10
I1
sg11
S'X0,00'
p957
sg12
(dp958
g14
g15
sg16
Nssg17
(dp959
g19
I00
sg20
(I0
I4
tp960
ssg22
S"['ost_nach']"
p961
sg23
F14.42
sg24
I01
sg25
F63.223999999999997
sg26
I1
sg27
(dp962
g29
g30
sg31
g32
sg33
g34
sg35
Nsg36
I00
sg37
I10
ssg38
(NNNNtp963
sg40
Nsa(dp964
g10
I1
sg11
S'X0,00'
p965
sg12
(dp966
g14
g15
sg16
Nssg17
(dp967
g19
I00
sg20
(I0
I4
tp968
ssg22
S"['otgruz']"
p969
sg23
F14.42
sg24
I01
sg25
F63.223999999999997
sg26
I1
sg27
(dp970
g29
g30
sg31
g823
sg33
g34
sg35
g823
sg36
I00
sg37
F10
ssg38
(NNNNtp971
sg40
Nsa(dp972
g10
I1
sg11
S'X0,00'
p973
sg12
(dp974
g14
g15
sg16
Nssg17
(dp975
g19
I00
sg20
(I0
I4
tp976
ssg22
S"['prihod']"
p977
sg23
F14.42
sg24
I01
sg25
F63.223999999999997
sg26
I1
sg27
(dp978
g29
g30
sg31
g32
sg33
g34
sg35
Nsg36
I00
sg37
I10
ssg38
(NNNNtp979
sg40
Nsa(dp980
g10
I1
sg11
S'X0,00'
p981
sg12
(dp982
g14
g15
sg16
Nssg17
(dp983
g19
I00
sg20
(I0
I4
tp984
ssg22
S"['vnprihod']"
p985
sg23
F14.42
sg24
I01
sg25
F96.067999999999998
sg26
I1
sg27
(dp986
g29
g30
sg31
g32
sg33
g34
sg35
Nsg36
I00
sg37
I10
ssg38
(NNNNtp987
sg40
Nsa(dp988
g10
I1
sg11
S'X0,00'
p989
sg12
(dp990
g14
g15
sg16
Nssg17
(dp991
g19
I00
sg20
(I0
I4
tp992
ssg22
S"['pvozv']"
p993
sg23
F14.42
sg24
I01
sg25
F146.88800000000001
sg26
I1
sg27
(dp994
g29
g30
sg31
g32
sg33
g34
sg35
Nsg36
I00
sg37
I10
ssg38
(NNNNtp995
sg40
Nsa(dp996
g10
I1
sg11
S'X0,00'
p997
sg12
(dp998
g14
g15
sg16
Nssg17
(dp999
g19
I00
sg20
(I0
I4
tp1000
ssg22
S"['pvnvoz']"
p1001
sg23
F14.42
sg24
I01
sg25
F63.223999999999997
sg26
I1
sg27
(dp1002
g29
g30
sg31
g32
sg33
g34
sg35
Nsg36
I00
sg37
I10
ssg38
(NNNNtp1003
sg40
Nsa(dp1004
g10
I1
sg11
S'X0,00'
p1005
sg12
(dp1006
g14
g15
sg16
Nssg17
(dp1007
g19
I00
sg20
(I0
I4
tp1008
ssg22
S"['pproch']"
p1009
sg23
F14.42
sg24
I01
sg25
F63.223999999999997
sg26
I1
sg27
(dp1010
g29
g30
sg31
g32
sg33
g34
sg35
Nsg36
I00
sg37
I10
ssg38
(NNNNtp1011
sg40
Nsa(dp1012
g10
I1
sg11
S'X0,00'
p1013
sg12
(dp1014
g14
g15
sg16
Nssg17
(dp1015
g19
I00
sg20
(I0
I4
tp1016
ssg22
S"['prihod_raschet']"
p1017
sg23
F14.42
sg24
I01
sg25
F63.223999999999997
sg26
I1
sg27
(dp1018
g29
g30
sg31
g823
sg33
g34
sg35
g823
sg36
I00
sg37
F10
ssg38
(NNNNtp1019
sg40
Nsa(dp1020
g10
I1
sg11
S'X0,00'
p1021
sg12
(dp1022
g14
g15
sg16
Nssg17
(dp1023
g19
I00
sg20
(I0
I4
tp1024
ssg22
S"['rashod']"
p1025
sg23
F14.42
sg24
I01
sg25
F63.223999999999997
sg26
I1
sg27
(dp1026
g29
g30
sg31
g32
sg33
g34
sg35
Nsg36
I00
sg37
I10
ssg38
(NNNNtp1027
sg40
Nsa(dp1028
g10
I1
sg11
S'X0,00'
p1029
sg12
(dp1030
g14
g15
sg16
Nssg17
(dp1031
g19
I00
sg20
(I0
I4
tp1032
ssg22
S"['vnrashod']"
p1033
sg23
F14.42
sg24
I01
sg25
F63.223999999999997
sg26
I1
sg27
(dp1034
g29
g30
sg31
g32
sg33
g34
sg35
Nsg36
I00
sg37
I10
ssg38
(NNNNtp1035
sg40
Nsa(dp1036
g10
I1
sg11
S'X0,00'
p1037
sg12
(dp1038
g14
g15
sg16
Nssg17
(dp1039
g19
I00
sg20
(I0
I4
tp1040
ssg22
S"['rvozv']"
p1041
sg23
F14.42
sg24
I01
sg25
F63.223999999999997
sg26
I1
sg27
(dp1042
g29
g30
sg31
g32
sg33
g34
sg35
Nsg36
I00
sg37
I10
ssg38
(NNNNtp1043
sg40
Nsa(dp1044
g10
I1
sg11
S'X0,00'
p1045
sg12
(dp1046
g14
g15
sg16
Nssg17
(dp1047
g19
I00
sg20
(I0
I4
tp1048
ssg22
S"['rvnvoz']"
p1049
sg23
F14.42
sg24
I01
sg25
F63.223999999999997
sg26
I1
sg27
(dp1050
g29
g30
sg31
g32
sg33
g34
sg35
Nsg36
I00
sg37
I10
ssg38
(NNNNtp1051
sg40
Nsa(dp1052
g10
I1
sg11
S'X0,00'
p1053
sg12
(dp1054
g14
g15
sg16
Nssg17
(dp1055
g19
I00
sg20
(I0
I4
tp1056
ssg22
S"['rrozn']"
p1057
sg23
F14.42
sg24
I01
sg25
F63.223999999999997
sg26
I1
sg27
(dp1058
g29
g30
sg31
g32
sg33
g34
sg35
Nsg36
I00
sg37
I10
ssg38
(NNNNtp1059
sg40
Nsa(dp1060
g10
I1
sg11
S'X0,00'
p1061
sg12
(dp1062
g14
g15
sg16
Nssg17
(dp1063
g19
I00
sg20
(I0
I4
tp1064
ssg22
S"['rproch']"
p1065
sg23
F14.42
sg24
I01
sg25
F63.223999999999997
sg26
I1
sg27
(dp1066
g29
g30
sg31
g32
sg33
g34
sg35
Nsg36
I00
sg37
I10
ssg38
(NNNNtp1067
sg40
Nsa(dp1068
g10
I1
sg11
S'X0,00'
p1069
sg12
(dp1070
g14
g15
sg16
Nssg17
(dp1071
g19
I00
sg20
(I0
I4
tp1072
ssg22
S"['rashod_raschet']"
p1073
sg23
F14.42
sg24
I01
sg25
F63.223999999999997
sg26
I1
sg27
(dp1074
g29
g30
sg31
g823
sg33
g34
sg35
g823
sg36
I00
sg37
F10
ssg38
(NNNNtp1075
sg40
Nsa(dp1076
g10
I1
sg11
S'X0,00'
p1077
sg12
(dp1078
g14
g15
sg16
Nssg17
(dp1079
g19
I00
sg20
(I0
I4
tp1080
ssg22
S"['ost_zayav']"
p1081
sg23
F14.42
sg24
I01
sg25
F63.223999999999997
sg26
I1
sg27
(dp1082
g29
g30
sg31
g32
sg33
g34
sg35
Nsg36
I00
sg37
I10
ssg38
(NNNNtp1083
sg40
Nsa(dp1084
g10
I1
sg11
S'X0,00'
p1085
sg12
(dp1086
g14
g15
sg16
Nssg17
(dp1087
g19
I00
sg20
(I0
I4
tp1088
ssg22
S"['raschet_stalo']"
p1089
sg23
F14.42
sg24
I01
sg25
F63.223999999999997
sg26
I1
sg27
(dp1090
g29
g30
sg31
g32
sg33
g34
sg35
Nsg36
I00
sg37
I10
ssg38
(NNNNtp1091
sg40
Nsa(dp1092
g10
I1
sg11
S'X0,00'
p1093
sg12
(dp1094
g14
g15
sg16
(I192
I192
I192
tp1095
ssg17
(dp1096
g19
I00
sg20
(I0
I4
tp1097
ssg22
Nsg23
F14.42
sg24
I01
sg25
F63.223999999999997
sg26
I1
sg27
(dp1098
g29
g53
sg31
g937
sg33
g34
sg35
g937
sg36
I00
sg37
F10
ssg38
(NNNNtp1099
sg40
Nsaa(lp1100
(dp1101
g10
I1
sg11
S'X0,00'
p1102
sg12
(dp1103
g14
g15
sg16
(I221
I221
I221
tp1104
ssg17
(dp1105
g19
I00
sg20
(I0
I4
tp1106
ssg22
S"['region']"
p1107
sg23
F14.42
sg24
I01
sg25
F63.223999999999997
sg26
I1
sg27
(dp1108
g29
g30
sg31
g32
sg33
g34
sg35
Nsg36
I00
sg37
I10
ssg38
(NNNNtp1109
sg40
Nsa(dp1110
g10
I1
sg11
S'X0,00'
p1111
sg12
(dp1112
g14
g15
sg16
(I221
I221
I221
tp1113
ssg17
(dp1114
g19
I00
sg20
(I0
I4
tp1115
ssg22
S'\xd0\x98\xd1\x82\xd0\xbe\xd0\xb3\xd0\xbe \xd0\xbf\xd0\xbe \xd1\x80\xd0\xb5\xd0\xb3\xd0\xb8\xd0\xbe\xd0\xbd\xd1\x83:'
p1116
sg23
F14.42
sg24
I01
sg25
F238.392
sg26
I1
sg27
(dp1117
g29
g53
sg31
VArial
p1118
sg33
g34
sg35
g1118
sg36
I00
sg37
F10
ssg38
(NNNNtp1119
sg40
Nsa(dp1120
g10
I1
sg11
S'X0,00'
p1121
sg12
(dp1122
g14
g15
sg16
(I221
I221
I221
tp1123
ssg17
(dp1124
g19
I00
sg20
(I0
I4
tp1125
ssg22
S'[^SUM({ost_nach})^]'
p1126
sg23
F14.42
sg24
I01
sg25
F63.223999999999997
sg26
I1
sg27
(dp1127
g29
g53
sg31
g1118
sg33
g34
sg35
g1118
sg36
I00
sg37
F10
ssg38
(NNNNtp1128
sg40
Nsa(dp1129
g10
I1
sg11
S'X0,00'
p1130
sg12
(dp1131
g14
g15
sg16
(I221
I221
I221
tp1132
ssg17
(dp1133
g19
I00
sg20
(I0
I4
tp1134
ssg22
S'[^SUM({otgruz})^]'
p1135
sg23
F14.42
sg24
I01
sg25
F63.223999999999997
sg26
I1
sg27
(dp1136
g29
g53
sg31
g1118
sg33
g34
sg35
g1118
sg36
I00
sg37
F10
ssg38
(NNNNtp1137
sg40
Nsa(dp1138
g10
I1
sg11
S'X0,00'
p1139
sg12
(dp1140
g14
g15
sg16
(I221
I221
I221
tp1141
ssg17
(dp1142
g19
I00
sg20
(I0
I4
tp1143
ssg22
S'[^SUM({prihod})^]'
p1144
sg23
F14.42
sg24
I01
sg25
F63.223999999999997
sg26
I1
sg27
(dp1145
g29
g53
sg31
VArial
p1146
sg33
g34
sg35
g1146
sg36
I00
sg37
F10
ssg38
(NNNNtp1147
sg40
Nsa(dp1148
g10
I1
sg11
S'X0,00'
p1149
sg12
(dp1150
g14
g15
sg16
(I221
I221
I221
tp1151
ssg17
(dp1152
g19
I00
sg20
(I0
I4
tp1153
ssg22
S'[^SUM({vnprihod})^]'
p1154
sg23
F14.42
sg24
I01
sg25
F96.067999999999998
sg26
I1
sg27
(dp1155
g29
g53
sg31
g1118
sg33
g34
sg35
g1118
sg36
I00
sg37
F10
ssg38
(NNNNtp1156
sg40
Nsa(dp1157
g10
I1
sg11
S'X0,00'
p1158
sg12
(dp1159
g14
g15
sg16
(I221
I221
I221
tp1160
ssg17
(dp1161
g19
I00
sg20
(I0
I4
tp1162
ssg22
S'[^SUM({pvozv})^]'
p1163
sg23
F14.42
sg24
I01
sg25
F146.88800000000001
sg26
I1
sg27
(dp1164
g29
g53
sg31
g1118
sg33
g34
sg35
g1118
sg36
I00
sg37
F10
ssg38
(NNNNtp1165
sg40
Nsa(dp1166
g10
I1
sg11
S'X0,00'
p1167
sg12
(dp1168
g14
g15
sg16
(I221
I221
I221
tp1169
ssg17
(dp1170
g19
I00
sg20
(I0
I4
tp1171
ssg22
S'[^SUM({pvnvoz})^]'
p1172
sg23
F14.42
sg24
I01
sg25
F63.223999999999997
sg26
I1
sg27
(dp1173
g29
g53
sg31
g1118
sg33
g34
sg35
g1118
sg36
I00
sg37
F10
ssg38
(NNNNtp1174
sg40
Nsa(dp1175
g10
I1
sg11
S'X0,00'
p1176
sg12
(dp1177
g14
g15
sg16
(I221
I221
I221
tp1178
ssg17
(dp1179
g19
I00
sg20
(I0
I4
tp1180
ssg22
S'[^SUM({pproch})^]'
p1181
sg23
F14.42
sg24
I01
sg25
F63.223999999999997
sg26
I1
sg27
(dp1182
g29
g53
sg31
g1118
sg33
g34
sg35
g1118
sg36
I00
sg37
F10
ssg38
(NNNNtp1183
sg40
Nsa(dp1184
g10
I1
sg11
S'X0,00'
p1185
sg12
(dp1186
g14
g15
sg16
(I221
I221
I221
tp1187
ssg17
(dp1188
g19
I00
sg20
(I0
I4
tp1189
ssg22
S'[^SUM({prihod_raschet})^] '
p1190
sg23
F14.42
sg24
I01
sg25
F63.223999999999997
sg26
I1
sg27
(dp1191
g29
g53
sg31
g1118
sg33
g34
sg35
g1118
sg36
I00
sg37
F10
ssg38
(NNNNtp1192
sg40
Nsa(dp1193
g10
I1
sg11
S'X0,00'
p1194
sg12
(dp1195
g14
g15
sg16
(I221
I221
I221
tp1196
ssg17
(dp1197
g19
I00
sg20
(I0
I4
tp1198
ssg22
S'[^SUM({rashod})^]'
p1199
sg23
F14.42
sg24
I01
sg25
F63.223999999999997
sg26
I1
sg27
(dp1200
g29
g53
sg31
g1118
sg33
g34
sg35
g1118
sg36
I00
sg37
F10
ssg38
(NNNNtp1201
sg40
Nsa(dp1202
g10
I1
sg11
S'X0,00'
p1203
sg12
(dp1204
g14
g15
sg16
(I221
I221
I221
tp1205
ssg17
(dp1206
g19
I00
sg20
(I0
I4
tp1207
ssg22
S'[^SUM({vnrashod})^]'
p1208
sg23
F14.42
sg24
I01
sg25
F63.223999999999997
sg26
I1
sg27
(dp1209
g29
g53
sg31
g1118
sg33
g34
sg35
g1118
sg36
I00
sg37
F10
ssg38
(NNNNtp1210
sg40
Nsa(dp1211
g10
I1
sg11
S'X0,00'
p1212
sg12
(dp1213
g14
g15
sg16
(I221
I221
I221
tp1214
ssg17
(dp1215
g19
I00
sg20
(I0
I4
tp1216
ssg22
S'[^SUM({rvozv})^]'
p1217
sg23
F14.42
sg24
I01
sg25
F63.223999999999997
sg26
I1
sg27
(dp1218
g29
g53
sg31
g1118
sg33
g34
sg35
g1118
sg36
I00
sg37
F10
ssg38
(NNNNtp1219
sg40
Nsa(dp1220
g10
I1
sg11
S'X0,00'
p1221
sg12
(dp1222
g14
g15
sg16
(I221
I221
I221
tp1223
ssg17
(dp1224
g19
I00
sg20
(I0
I4
tp1225
ssg22
S'[^SUM({rvnvoz})^]'
p1226
sg23
F14.42
sg24
I01
sg25
F63.223999999999997
sg26
I1
sg27
(dp1227
g29
g53
sg31
g1118
sg33
g34
sg35
g1118
sg36
I00
sg37
F10
ssg38
(NNNNtp1228
sg40
Nsa(dp1229
g10
I1
sg11
S'X0,00'
p1230
sg12
(dp1231
g14
g15
sg16
(I221
I221
I221
tp1232
ssg17
(dp1233
g19
I00
sg20
(I0
I4
tp1234
ssg22
S'[^SUM({rrozn})^]'
p1235
sg23
F14.42
sg24
I01
sg25
F63.223999999999997
sg26
I1
sg27
(dp1236
g29
g53
sg31
g1118
sg33
g34
sg35
g1118
sg36
I00
sg37
F10
ssg38
(NNNNtp1237
sg40
Nsa(dp1238
g10
I1
sg11
S'X0,00'
p1239
sg12
(dp1240
g14
g15
sg16
(I221
I221
I221
tp1241
ssg17
(dp1242
g19
I00
sg20
(I0
I4
tp1243
ssg22
S'[^SUM({rproch})^]'
p1244
sg23
F14.42
sg24
I01
sg25
F63.223999999999997
sg26
I1
sg27
(dp1245
g29
g53
sg31
g1146
sg33
g34
sg35
g1146
sg36
I00
sg37
F10
ssg38
(NNNNtp1246
sg40
Nsa(dp1247
g10
I1
sg11
S'X0,00'
p1248
sg12
(dp1249
g14
g15
sg16
(I221
I221
I221
tp1250
ssg17
(dp1251
g19
I00
sg20
(I0
I4
tp1252
ssg22
S'[^SUM({rashod_raschet})^]'
p1253
sg23
F14.42
sg24
I01
sg25
F63.223999999999997
sg26
I1
sg27
(dp1254
g29
g53
sg31
g1118
sg33
g34
sg35
g1118
sg36
I00
sg37
F10
ssg38
(NNNNtp1255
sg40
Nsa(dp1256
g10
I1
sg11
S'X0,00'
p1257
sg12
(dp1258
g14
g15
sg16
(I221
I221
I221
tp1259
ssg17
(dp1260
g19
I00
sg20
(I0
I4
tp1261
ssg22
S'[^SUM({ost_zayav})^]'
p1262
sg23
F14.42
sg24
I01
sg25
F63.223999999999997
sg26
I1
sg27
(dp1263
g29
g53
sg31
g1118
sg33
g34
sg35
g1118
sg36
I00
sg37
F10
ssg38
(NNNNtp1264
sg40
Nsa(dp1265
g10
I1
sg11
S'X0,00'
p1266
sg12
(dp1267
g14
g15
sg16
(I221
I221
I221
tp1268
ssg17
(dp1269
g19
I00
sg20
(I0
I4
tp1270
ssg22
S'[^SUM({raschet_stalo})^]'
p1271
sg23
F14.42
sg24
I01
sg25
F63.223999999999997
sg26
I1
sg27
(dp1272
g29
g53
sg31
g1146
sg33
g34
sg35
g1146
sg36
I00
sg37
F10
ssg38
(NNNNtp1273
sg40
Nsa(dp1274
g10
I1
sg11
S'X0,00'
p1275
sg12
(dp1276
g14
g15
sg16
(I221
I221
I221
tp1277
ssg17
(dp1278
g19
I00
sg20
(I0
I4
tp1279
ssg22
Nsg23
F14.42
sg24
I01
sg25
F63.223999999999997
sg26
I1
sg27
(dp1280
g29
g53
sg31
g1118
sg33
g34
sg35
g1118
sg36
I00
sg37
F10
ssg38
(NNNNtp1281
sg40
Nsaa(lp1282
(dp1283
g10
I1
sg11
S'X0,00'
p1284
sg12
(dp1285
g14
g15
sg16
(I178
I178
I178
tp1286
ssg17
(dp1287
g19
I00
sg20
(I0
I4
tp1288
ssg22
Nsg23
F14.42
sg24
I01
sg25
F63.223999999999997
sg26
I1
sg27
(dp1289
g29
g53
sg31
VArial
p1290
sg33
g34
sg35
g1290
sg36
I00
sg37
F10
ssg38
(NNNNtp1291
sg40
Nsa(dp1292
g10
I1
sg11
S'X0,00'
p1293
sg12
(dp1294
g14
g15
sg16
(I178
I178
I178
tp1295
ssg17
(dp1296
g19
I00
sg20
(I0
I4
tp1297
ssg22
S'\xd0\x98\xd1\x82\xd0\xbe\xd0\xb3\xd0\xbe \xd0\xbf\xd0\xbe \xd0\xb2\xd1\x81\xd0\xb5\xd0\xbc \xd0\xb4\xd0\xb8\xd0\xbb\xd0\xb5\xd1\x80\xd0\xb0\xd0\xbc:'
p1298
sg23
F14.42
sg24
I01
sg25
F238.392
sg26
I1
sg27
(dp1299
g29
g53
sg31
g1290
sg33
g34
sg35
g1290
sg36
I00
sg37
F10
ssg38
(NNNNtp1300
sg40
Nsa(dp1301
g10
I1
sg11
S'X0,00'
p1302
sg12
(dp1303
g14
g15
sg16
(I221
I221
I221
tp1304
ssg17
(dp1305
g19
I00
sg20
(I0
I4
tp1306
ssg22
S'[^SUM({ost_nach})^]'
p1307
sg23
F14.42
sg24
I01
sg25
F63.223999999999997
sg26
I1
sg27
(dp1308
g29
g53
sg31
g1118
sg33
g34
sg35
g1118
sg36
I00
sg37
F10
ssg38
(NNNNtp1309
sg40
Nsa(dp1310
g10
I1
sg11
S'X0,00'
p1311
sg12
(dp1312
g14
g15
sg16
(I221
I221
I221
tp1313
ssg17
(dp1314
g19
I00
sg20
(I0
I4
tp1315
ssg22
S'[^SUM({otgruz})^]'
p1316
sg23
F14.42
sg24
I01
sg25
F63.223999999999997
sg26
I1
sg27
(dp1317
g29
g53
sg31
g1118
sg33
g34
sg35
g1118
sg36
I00
sg37
F10
ssg38
(NNNNtp1318
sg40
Nsa(dp1319
g10
I1
sg11
S'X0,00'
p1320
sg12
(dp1321
g14
g15
sg16
(I221
I221
I221
tp1322
ssg17
(dp1323
g19
I00
sg20
(I0
I4
tp1324
ssg22
S'[^SUM({prihod})^]'
p1325
sg23
F14.42
sg24
I01
sg25
F63.223999999999997
sg26
I1
sg27
(dp1326
g29
g53
sg31
g1146
sg33
g34
sg35
g1146
sg36
I00
sg37
F10
ssg38
(NNNNtp1327
sg40
Nsa(dp1328
g10
I1
sg11
S'X0,00'
p1329
sg12
(dp1330
g14
g15
sg16
(I221
I221
I221
tp1331
ssg17
(dp1332
g19
I00
sg20
(I0
I4
tp1333
ssg22
S'[^SUM({vnprihod})^]'
p1334
sg23
F14.42
sg24
I01
sg25
F96.067999999999998
sg26
I1
sg27
(dp1335
g29
g53
sg31
g1118
sg33
g34
sg35
g1118
sg36
I00
sg37
F10
ssg38
(NNNNtp1336
sg40
Nsa(dp1337
g10
I1
sg11
S'X0,00'
p1338
sg12
(dp1339
g14
g15
sg16
(I221
I221
I221
tp1340
ssg17
(dp1341
g19
I00
sg20
(I0
I4
tp1342
ssg22
S'[^SUM({pvozv})^]'
p1343
sg23
F14.42
sg24
I01
sg25
F146.88800000000001
sg26
I1
sg27
(dp1344
g29
g53
sg31
g1118
sg33
g34
sg35
g1118
sg36
I00
sg37
F10
ssg38
(NNNNtp1345
sg40
Nsa(dp1346
g10
I1
sg11
S'X0,00'
p1347
sg12
(dp1348
g14
g15
sg16
(I221
I221
I221
tp1349
ssg17
(dp1350
g19
I00
sg20
(I0
I4
tp1351
ssg22
S'[^SUM({pvnvoz})^]'
p1352
sg23
F14.42
sg24
I01
sg25
F63.223999999999997
sg26
I1
sg27
(dp1353
g29
g53
sg31
g1118
sg33
g34
sg35
g1118
sg36
I00
sg37
F10
ssg38
(NNNNtp1354
sg40
Nsa(dp1355
g10
I1
sg11
S'X0,00'
p1356
sg12
(dp1357
g14
g15
sg16
(I221
I221
I221
tp1358
ssg17
(dp1359
g19
I00
sg20
(I0
I4
tp1360
ssg22
S'[^SUM({pproch})^]'
p1361
sg23
F14.42
sg24
I01
sg25
F63.223999999999997
sg26
I1
sg27
(dp1362
g29
g53
sg31
g1118
sg33
g34
sg35
g1118
sg36
I00
sg37
F10
ssg38
(NNNNtp1363
sg40
Nsa(dp1364
g10
I1
sg11
S'X0,00'
p1365
sg12
(dp1366
g14
g15
sg16
(I221
I221
I221
tp1367
ssg17
(dp1368
g19
I00
sg20
(I0
I4
tp1369
ssg22
S'[^SUM({prihod_raschet})^] '
p1370
sg23
F14.42
sg24
I01
sg25
F63.223999999999997
sg26
I1
sg27
(dp1371
g29
g53
sg31
g1118
sg33
g34
sg35
g1118
sg36
I00
sg37
F10
ssg38
(NNNNtp1372
sg40
Nsa(dp1373
g10
I1
sg11
S'X0,00'
p1374
sg12
(dp1375
g14
g15
sg16
(I221
I221
I221
tp1376
ssg17
(dp1377
g19
I00
sg20
(I0
I4
tp1378
ssg22
S'[^SUM({rashod})^]'
p1379
sg23
F14.42
sg24
I01
sg25
F63.223999999999997
sg26
I1
sg27
(dp1380
g29
g53
sg31
g1118
sg33
g34
sg35
g1118
sg36
I00
sg37
F10
ssg38
(NNNNtp1381
sg40
Nsa(dp1382
g10
I1
sg11
S'X0,00'
p1383
sg12
(dp1384
g14
g15
sg16
(I221
I221
I221
tp1385
ssg17
(dp1386
g19
I00
sg20
(I0
I4
tp1387
ssg22
S'[^SUM({vnrashod})^]'
p1388
sg23
F14.42
sg24
I01
sg25
F63.223999999999997
sg26
I1
sg27
(dp1389
g29
g53
sg31
g1118
sg33
g34
sg35
g1118
sg36
I00
sg37
F10
ssg38
(NNNNtp1390
sg40
Nsa(dp1391
g10
I1
sg11
S'X0,00'
p1392
sg12
(dp1393
g14
g15
sg16
(I221
I221
I221
tp1394
ssg17
(dp1395
g19
I00
sg20
(I0
I4
tp1396
ssg22
S'[^SUM({rvozv})^]'
p1397
sg23
F14.42
sg24
I01
sg25
F63.223999999999997
sg26
I1
sg27
(dp1398
g29
g53
sg31
g1118
sg33
g34
sg35
g1118
sg36
I00
sg37
F10
ssg38
(NNNNtp1399
sg40
Nsa(dp1400
g10
I1
sg11
S'X0,00'
p1401
sg12
(dp1402
g14
g15
sg16
(I221
I221
I221
tp1403
ssg17
(dp1404
g19
I00
sg20
(I0
I4
tp1405
ssg22
S'[^SUM({rvnvoz})^]'
p1406
sg23
F14.42
sg24
I01
sg25
F63.223999999999997
sg26
I1
sg27
(dp1407
g29
g53
sg31
g1118
sg33
g34
sg35
g1118
sg36
I00
sg37
F10
ssg38
(NNNNtp1408
sg40
Nsa(dp1409
g10
I1
sg11
S'X0,00'
p1410
sg12
(dp1411
g14
g15
sg16
(I221
I221
I221
tp1412
ssg17
(dp1413
g19
I00
sg20
(I0
I4
tp1414
ssg22
S'[^SUM({rrozn})^]'
p1415
sg23
F14.42
sg24
I01
sg25
F63.223999999999997
sg26
I1
sg27
(dp1416
g29
g53
sg31
g1118
sg33
g34
sg35
g1118
sg36
I00
sg37
F10
ssg38
(NNNNtp1417
sg40
Nsa(dp1418
g10
I1
sg11
S'X0,00'
p1419
sg12
(dp1420
g14
g15
sg16
(I221
I221
I221
tp1421
ssg17
(dp1422
g19
I00
sg20
(I0
I4
tp1423
ssg22
S'[^SUM({rproch})^]'
p1424
sg23
F14.42
sg24
I01
sg25
F63.223999999999997
sg26
I1
sg27
(dp1425
g29
g53
sg31
g1146
sg33
g34
sg35
g1146
sg36
I00
sg37
F10
ssg38
(NNNNtp1426
sg40
Nsa(dp1427
g10
I1
sg11
S'X0,00'
p1428
sg12
(dp1429
g14
g15
sg16
(I221
I221
I221
tp1430
ssg17
(dp1431
g19
I00
sg20
(I0
I4
tp1432
ssg22
S'[^SUM({rashod_raschet})^]'
p1433
sg23
F14.42
sg24
I01
sg25
F63.223999999999997
sg26
I1
sg27
(dp1434
g29
g53
sg31
g1118
sg33
g34
sg35
g1118
sg36
I00
sg37
F10
ssg38
(NNNNtp1435
sg40
Nsa(dp1436
g10
I1
sg11
S'X0,00'
p1437
sg12
(dp1438
g14
g15
sg16
(I221
I221
I221
tp1439
ssg17
(dp1440
g19
I00
sg20
(I0
I4
tp1441
ssg22
S'[^SUM({ost_zayav})^]'
p1442
sg23
F14.42
sg24
I01
sg25
F63.223999999999997
sg26
I1
sg27
(dp1443
g29
g53
sg31
g1118
sg33
g34
sg35
g1118
sg36
I00
sg37
F10
ssg38
(NNNNtp1444
sg40
Nsa(dp1445
g10
I1
sg11
S'X0,00'
p1446
sg12
(dp1447
g14
g15
sg16
(I221
I221
I221
tp1448
ssg17
(dp1449
g19
I00
sg20
(I0
I4
tp1450
ssg22
S'[^SUM({raschet_stalo})^]'
p1451
sg23
F14.42
sg24
I01
sg25
F63.223999999999997
sg26
I1
sg27
(dp1452
g29
g53
sg31
g1146
sg33
g34
sg35
g1146
sg36
I00
sg37
F10
ssg38
(NNNNtp1453
sg40
Nsa(dp1454
g10
I1
sg11
S'X0,00'
p1455
sg12
(dp1456
g14
g15
sg16
(I178
I178
I178
tp1457
ssg17
(dp1458
g19
I00
sg20
(I0
I4
tp1459
ssg22
Nsg23
F14.42
sg24
I01
sg25
F63.223999999999997
sg26
I1
sg27
(dp1460
g29
g53
sg31
g1290
sg33
g34
sg35
g1290
sg36
I00
sg37
F10
ssg38
(NNNNtp1461
sg40
Nsaasg31
S'rep_tmpl'
p1462
sS'generator'
p1463
S'.ods'
p1464
sS'footer'
p1465
(dp1466
S'row_size'
p1467
I1
sS'col_size'
p1468
I20
sS'col'
p1469
I0
sS'row'
p1470
I8
ssS'page_setup'
p1471
(dp1472
S'scale'
p1473
I100
sS'start_num'
p1474
I1
sS'orientation'
p1475
I0
sS'fit'
p1476
(I1
I1
tp1477
sS'paper_size'
p1478
S'9'
sS'resolution'
p1479
(I300
I300
tp1480
sS'page_margins'
p1481
(F0
F0
F0
F0
tp1482
ssS'variables'
p1483
(dp1484
sS'args'
p1485
(dp1486
sS'detail'
p1487
(dp1488
g1467
I1
sg1468
I20
sg1469
I0
sg1470
I6
ssS'header'
p1489
(dp1490
g1467
I5
sg1468
I20
sg1469
I0
sg1470
I0
ssS'style_lib'
p1491
NsS'groups'
p1492
(lp1493
(dp1494
g1489
(dp1495
g1467
I1
sg1468
I20
sg1469
I0
sg1470
I5
ssg1465
(dp1496
g1467
I1
sg1468
I20
sg1469
I0
sg1470
I7
ssS'field'
p1497
S'region'
p1498
sS'old_rec'
p1499
NsasS'under'
p1500
(dp1501
sS'query'
p1502
S"SQL: select * from get_dilers_commodity_circulation('2015-01-01', '2015-01-31', 1)"
p1503
sS'description'
p1504
S'\xd0\xa1\xd0\xb2\xd0\xbe\xd0\xb4\xd0\xbd\xd1\x8b\xd0\xb9 \xd0\xbe\xd1\x82\xd1\x87\xd0\xb5\xd1\x82 \xd0\xbe \xd0\xb4\xd0\xb2\xd0\xb8\xd0\xb6\xd0\xb5\xd0\xbd\xd0\xb8\xd0\xb8 \xd0\xbf\xd1\x80\xd0\xbe\xd0\xb4\xd1\x83\xd0\xba\xd1\x86\xd0\xb8\xd0\xb8 \xd0\xbd\xd0\xb0 \xd1\x81\xd0\xba\xd0\xbb\xd0\xb0\xd0\xb4\xd0\xb0\xd1\x85 \xd0\xb4\xd0\xb8\xd0\xbb\xd0\xb5\xd1\x80\xd0\xbe\xd0\xb2 \xd0\xb7\xd0\xb0 \xd0\xbf\xd0\xb5\xd1\x80\xd0\xb8\xd0\xbe\xd0\xb4'
p1505
s.